ccopy_reg
_reconstructor
p0
(cdeap.tools.support
ParetoFront
p1
c__builtin__
object
p2
Ntp3
Rp4
(dp5
S'keys'
p6
(lp7
g0
(cdeap.creator
FitnessMin
p8
g2
Ntp9
Rp10
(dp11
S'wvalues'
p12
(cnumpy.core.multiarray
scalar
p13
(cnumpy
dtype
p14
(S'f8'
p15
I0
I1
tp16
Rp17
(I3
S'<'
p18
NNNI-1
I-1
I0
tp19
bS'u\xff\xa5\xe9zWs\xc0'
p20
tp21
Rp22
F210.0
tp23
sbag0
(g8
g2
Ntp24
Rp25
(dp26
g12
(g13
(g17
S'NZ\xb5\xe8\x1drp\xc0'
p27
tp28
Rp29
F186.0
tp30
sbag0
(g8
g2
Ntp31
Rp32
(dp33
g12
(g13
(g17
S'8w(\x13=\x8dm\xc0'
p34
tp35
Rp36
F174.0
tp37
sbag0
(g8
g2
Ntp38
Rp39
(dp40
g12
(g13
(g17
S'\x97\xa3\xf9\x9e\xb2ol\xc0'
p41
tp42
Rp43
F139.0
tp44
sbag0
(g8
g2
Ntp45
Rp46
(dp47
g12
(g13
(g17
S'\x01\xd9\xb7L\x0b?i\xc0'
p48
tp49
Rp50
F116.0
tp51
sbag0
(g8
g2
Ntp52
Rp53
(dp54
g12
(g13
(g17
S'\n\x9d\xa0\xfa\xce\xbeg\xc0'
p55
tp56
Rp57
F105.0
tp58
sbag0
(g8
g2
Ntp59
Rp60
(dp61
g12
(g13
(g17
S'\xaf\xa7\x97\x0b\x93\xdfd\xc0'
p62
tp63
Rp64
F58.0
tp65
sbag0
(g8
g2
Ntp66
Rp67
(dp68
g12
(g13
(g17
S'/\xa50\xfeM\xcdd\xc0'
p69
tp70
Rp71
F35.0
tp72
sbasS'items'
p73
(lp74
g0
(cdeap.creator
Individual
p75
c__builtin__
list
p76
(lp77
(lp78
I7
aI5
aI1
aI20
aI19
aI1
aI30
aI4
aI1
aI23
aI6
aI1
aI35
aI39
aI1
aI8
aI27
aI1
aI15
aI40
aI1
aI17
aI19
aI1
aI-1000
aI-1000
aI-1000
aI-1000
aI-1000
aI-1000
aI-1000
aI-1000
aI-1000
aI-1000
aI-1000
aI-1000
aI-1000
aI-1000
aI-1000
aatp79
Rp80
(dp81
S'fitness'
p82
g67
sbag0
(g75
g76
(lp83
(lp84
I7
aI5
aI1
aI20
aI19
aI1
aI30
aI4
aI1
aI22
aI6
aI1
aI35
aI39
aI1
aI8
aI27
aI1
aI17
aI40
aI2
aI17
aI19
aI1
aI16
aI49
aI0
aI-1000
aI-1000
aI-1000
aI-1000
aI-1000
aI-1000
aI-1000
aI-1000
aI-1000
aI-1000
aI-1000
aI-1000
aatp85
Rp86
(dp87
g82
g60
sbag0
(g75
g76
(lp88
(lp89
I12
aI10
aI3
aI22
aI17
aI1
aI33
aI7
aI2
aI23
aI6
aI1
aI46
aI40
aI2
aI8
aI27
aI1
aI18
aI42
aI1
aI20
aI27
aI1
aI42
aI22
aI1
aI15
aI1
aI1
aI-1000
aI-1000
aI-1000
aI-1000
aI-1000
aI-1000
aI-1000
aI-1000
aI-1000
aatp90
Rp91
(dp92
g82
g53
sbag0
(g75
g76
(lp93
(lp94
I5
aI5
aI2
aI18
aI19
aI4
aI33
aI4
aI2
aI23
aI6
aI1
aI42
aI41
aI4
aI12
aI27
aI4
aI16
aI44
aI3
aI19
aI8
aI1
aI26
aI1
aI1
aI41
aI27
aI0
aI19
aI29
aI0
aI-1000
aI-1000
aI-1000
aI-1000
aI-1000
aI-1000
aatp95
Rp96
(dp97
g82
g46
sbag0
(g75
g76
(lp98
(lp99
I5
aI8
aI3
aI19
aI17
aI4
aI34
aI3
aI5
aI23
aI8
aI2
aI39
aI36
aI3
aI11
aI27
aI3
aI15
aI44
aI1
aI21
aI38
aI1
aI28
aI13
aI0
aI39
aI29
aI0
aI2
aI22
aI0
aI39
aI13
aI1
aI-1000
aI-1000
aI-1000
aatp100
Rp101
(dp102
g82
g39
sbag0
(g75
g76
(lp103
(lp104
I11
aI10
aI1
aI21
aI15
aI5
aI34
aI3
aI4
aI24
aI8
aI3
aI37
aI42
aI2
aI10
aI30
aI6
aI12
aI45
aI6
aI9
aI16
aI0
aI23
aI24
aI1
aI38
aI6
aI1
aI41
aI6
aI0
aI3
aI19
aI1
aI15
aI17
aI0
aatp105
Rp106
(dp107
g82
g32
sbag0
(g75
g76
(lp108
(lp109
I7
aI12
aI4
aI22
aI16
aI2
aI34
aI5
aI1
aI23
aI8
aI6
aI44
aI37
aI5
aI8
aI29
aI3
aI14
aI41
aI1
aI34
aI12
aI0
aI20
aI22
aI1
aI20
aI27
aI1
aI18
aI4
aI1
aI29
aI27
aI1
aI8
aI47
aI0
aatp110
Rp111
(dp112
g82
g25
sbag0
(g75
g76
(lp113
(lp114
I9
aI11
aI6
aI19
aI18
aI4
aI34
aI2
aI1
aI24
aI7
aI3
aI41
aI35
aI5
aI10
aI27
aI2
aI12
aI43
aI4
aI38
aI10
aI1
aI39
aI20
aI1
aI35
aI26
aI1
aI46
aI47
aI1
aI46
aI9
aI1
aI16
aI20
aI1
aatp115
Rp116
(dp117
g82
g10
sbasS'maxsize'
p118
NsS'similar'
p119
coperator
eq
p120
sb.