(lp0
ccopy_reg
_reconstructor
p1
(cdeap.creator
Individual
p2
c__builtin__
list
p3
(lp4
(lp5
I7
aI5
aI1
aI20
aI19
aI1
aI30
aI4
aI1
aI23
aI6
aI1
aI35
aI39
aI1
aI8
aI27
aI1
aI15
aI40
aI1
aI17
aI19
aI1
aI-1000
aI-1000
aI-1000
aI-1000
aI-1000
aI-1000
aI-1000
aI-1000
aI-1000
aI-1000
aI-1000
aI-1000
aI-1000
aI-1000
aI-1000
aatp6
Rp7
(dp8
S'fitness'
p9
g1
(cdeap.creator
FitnessMin
p10
c__builtin__
object
p11
Ntp12
Rp13
(dp14
S'wvalues'
p15
(cnumpy.core.multiarray
scalar
p16
(cnumpy
dtype
p17
(S'f8'
p18
I0
I1
tp19
Rp20
(I3
S'<'
p21
NNNI-1
I-1
I0
tp22
bS'/\xa50\xfeM\xcdd\xc0'
p23
tp24
Rp25
F35.0
tp26
sbsbag1
(g2
g3
(lp27
(lp28
I7
aI5
aI1
aI20
aI19
aI1
aI30
aI4
aI1
aI22
aI6
aI1
aI35
aI39
aI1
aI8
aI27
aI1
aI17
aI40
aI2
aI17
aI19
aI1
aI16
aI49
aI0
aI-1000
aI-1000
aI-1000
aI-1000
aI-1000
aI-1000
aI-1000
aI-1000
aI-1000
aI-1000
aI-1000
aI-1000
aatp29
Rp30
(dp31
g9
g1
(g10
g11
Ntp32
Rp33
(dp34
g15
(g16
(g20
S'\xaf\xa7\x97\x0b\x93\xdfd\xc0'
p35
tp36
Rp37
F58.0
tp38
sbsbag1
(g2
g3
(lp39
(lp40
I7
aI12
aI2
aI20
aI16
aI4
aI32
aI7
aI1
aI24
aI8
aI1
aI38
aI44
aI3
aI10
aI29
aI4
aI17
aI45
aI2
aI18
aI11
aI0
aI25
aI20
aI0
aI40
aI29
aI0
aI23
aI18
aI0
aI-1000
aI-1000
aI-1000
aI-1000
aI-1000
aI-1000
aatp41
Rp42
(dp43
g9
g1
(g10
g11
Ntp44
Rp45
(dp46
g15
(g16
(g20
S'2\x82\x82\xb9q\xbfg\xc0'
p47
tp48
Rp49
F92.0
tp50
sbsbag1
(g2
g3
(lp51
(lp52
I10
aI12
aI1
aI22
aI15
aI3
aI32
aI1
aI2
aI23
aI8
aI1
aI41
aI35
aI2
aI11
aI27
aI2
aI12
aI41
aI1
aI23
aI31
aI1
aI40
aI15
aI1
aI28
aI9
aI0
aI-1000
aI-1000
aI-1000
aI-1000
aI-1000
aI-1000
aI-1000
aI-1000
aI-1000
aatp53
Rp54
(dp55
g9
g1
(g10
g11
Ntp56
Rp57
(dp58
g15
(g16
(g20
S'\xd5\xa5\xf5\x81\x08]k\xc0'
p59
tp60
Rp61
F93.0
tp62
sbsbag1
(g2
g3
(lp63
(lp64
I12
aI5
aI2
aI22
aI17
aI3
aI29
aI6
aI2
aI24
aI7
aI2
aI48
aI39
aI4
aI9
aI28
aI1
aI18
aI44
aI4
aI10
aI41
aI0
aI12
aI21
aI1
aI44
aI26
aI0
aI10
aI40
aI0
aI-1000
aI-1000
aI-1000
aI-1000
aI-1000
aI-1000
aatp65
Rp66
(dp67
g9
g1
(g10
g11
Ntp68
Rp69
(dp70
g15
(g16
(g20
S'0\xb3S\xfa\t\xfcl\xc0'
p71
tp72
Rp73
F104.0
tp74
sbsbag1
(g2
g3
(lp75
(lp76
I12
aI10
aI1
aI21
aI15
aI2
aI34
aI6
aI3
aI24
aI6
aI1
aI36
aI43
aI3
aI9
aI30
aI3
aI17
aI45
aI3
aI16
aI13
aI1
aI6
aI1
aI1
aI4
aI45
aI1
aI-1000
aI-1000
aI-1000
aI-1000
aI-1000
aI-1000
aI-1000
aI-1000
aI-1000
aatp77
Rp78
(dp79
g9
g1
(g10
g11
Ntp80
Rp81
(dp82
g15
(g16
(g20
S'Z\xebt\xb4:\x07m\xc0'
p83
tp84
Rp85
F105.0
tp86
sbsbag1
(g2
g3
(lp87
(lp88
I11
aI10
aI1
aI21
aI15
aI5
aI34
aI3
aI4
aI24
aI8
aI3
aI37
aI42
aI2
aI10
aI30
aI6
aI12
aI45
aI6
aI9
aI16
aI0
aI23
aI24
aI1
aI38
aI6
aI1
aI41
aI6
aI0
aI3
aI19
aI1
aI15
aI17
aI0
aatp89
Rp90
(dp91
g9
g1
(g10
g11
Ntp92
Rp93
(dp94
g15
(g16
(g20
S'8w(\x13=\x8dm\xc0'
p95
tp96
Rp97
F174.0
tp98
sbsbag1
(g2
g3
(lp99
(lp100
I7
aI12
aI4
aI22
aI16
aI2
aI34
aI5
aI1
aI23
aI8
aI6
aI44
aI37
aI5
aI8
aI29
aI3
aI14
aI41
aI1
aI34
aI12
aI0
aI20
aI22
aI1
aI20
aI27
aI1
aI18
aI4
aI1
aI29
aI27
aI1
aI8
aI47
aI0
aatp101
Rp102
(dp103
g9
g1
(g10
g11
Ntp104
Rp105
(dp106
g15
(g16
(g20
S'NZ\xb5\xe8\x1drp\xc0'
p107
tp108
Rp109
F186.0
tp110
sbsbag1
(g2
g3
(lp111
(lp112
I9
aI11
aI6
aI19
aI18
aI4
aI34
aI2
aI1
aI24
aI7
aI3
aI41
aI35
aI5
aI10
aI27
aI2
aI12
aI43
aI4
aI38
aI10
aI1
aI39
aI20
aI1
aI35
aI26
aI1
aI46
aI47
aI1
aI46
aI9
aI1
aI16
aI20
aI1
aatp113
Rp114
(dp115
g9
g1
(g10
g11
Ntp116
Rp117
(dp118
g15
(g16
(g20
S'u\xff\xa5\xe9zWs\xc0'
p119
tp120
Rp121
F210.0
tp122
sbsba.