(lp0
ccopy_reg
_reconstructor
p1
(cdeap.creator
Individual
p2
c__builtin__
list
p3
(lp4
(lp5
I8
aI9
aI1
aI18
aI15
aI1
aI15
aI12
aI1
aI14
aI3
aI1
aI5
aI16
aI1
aI8
aI14
aI1
aI12
aI13
aI0
aI-1000
aI-1000
aI-1000
aI-1000
aI-1000
aI-1000
aI-1000
aI-1000
aI-1000
aI-1000
aI-1000
aI-1000
aI-1000
aI-1000
aI-1000
aatp6
Rp7
(dp8
S'fitness'
p9
g1
(cdeap.creator
FitnessMin
p10
c__builtin__
object
p11
Ntp12
Rp13
(dp14
S'wvalues'
p15
(cnumpy.core.multiarray
scalar
p16
(cnumpy
dtype
p17
(S'f8'
p18
I0
I1
tp19
Rp20
(I3
S'<'
p21
NNNI-1
I-1
I0
tp22
bS'c\x8d\xd3\xa1(\x05T\xc0'
p23
tp24
Rp25
F23.0
tp26
sbsbag1
(g2
g3
(lp27
(lp28
I9
aI9
aI1
aI19
aI15
aI1
aI15
aI12
aI1
aI14
aI3
aI1
aI4
aI17
aI1
aI9
aI13
aI1
aI11
aI14
aI1
aI-1000
aI-1000
aI-1000
aI-1000
aI-1000
aI-1000
aI-1000
aI-1000
aI-1000
aI-1000
aI-1000
aI-1000
aI-1000
aI-1000
aI-1000
aatp29
Rp30
(dp31
g9
g1
(g10
g11
Ntp32
Rp33
(dp34
g15
(g16
(g20
S'\x8d"\xdd\xf3\x14\x8bU\xc0'
p35
tp36
Rp37
F35.0
tp38
sbsbag1
(g2
g3
(lp39
(lp40
I3
aI4
aI2
aI19
aI15
aI1
aI15
aI9
aI1
aI15
aI3
aI1
aI5
aI17
aI2
aI8
aI14
aI2
aI17
aI12
aI1
aI4
aI13
aI0
aI-1000
aI-1000
aI-1000
aI-1000
aI-1000
aI-1000
aI-1000
aI-1000
aI-1000
aI-1000
aI-1000
aI-1000
aatp41
Rp42
(dp43
g9
g1
(g10
g11
Ntp44
Rp45
(dp46
g15
(g16
(g20
S'\x18Xi\x13\xddnW\xc0'
p47
tp48
Rp49
F58.0
tp50
sbsbag1
(g2
g3
(lp51
(lp52
I8
aI7
aI2
aI19
aI16
aI2
aI16
aI9
aI2
aI13
aI3
aI2
aI4
aI18
aI1
aI9
aI14
aI2
aI13
aI14
aI1
aI11
aI11
aI1
aI-1000
aI-1000
aI-1000
aI-1000
aI-1000
aI-1000
aI-1000
aI-1000
aI-1000
aI-1000
aI-1000
aI-1000
aatp53
Rp54
(dp55
g9
g1
(g10
g11
Ntp56
Rp57
(dp58
g15
(g16
(g20
S'\xc4Q\xbc\xd9CaZ\xc0'
p59
tp60
Rp61
F70.0
tp62
sbsbag1
(g2
g3
(lp63
(lp64
I3
aI9
aI3
aI18
aI15
aI2
aI7
aI12
aI1
aI15
aI8
aI4
aI5
aI15
aI1
aI15
aI3
aI4
aI9
aI11
aI1
aI17
aI15
aI0
aI6
aI11
aI0
aI18
aI2
aI0
aI-1000
aI-1000
aI-1000
aI-1000
aI-1000
aI-1000
aatp65
Rp66
(dp67
g9
g1
(g10
g11
Ntp68
Rp69
(dp70
g15
(g16
(g20
S'\xfc\xcf\xd4\xf5\x9c\x17[\xc0'
p71
tp72
Rp73
F104.0
tp74
sbsbag1
(g2
g3
(lp75
(lp76
I3
aI9
aI3
aI18
aI15
aI2
aI7
aI12
aI1
aI15
aI8
aI4
aI5
aI15
aI1
aI15
aI3
aI4
aI9
aI11
aI1
aI17
aI15
aI1
aI4
aI11
aI0
aI18
aI2
aI0
aI-1000
aI-1000
aI-1000
aI-1000
aI-1000
aI-1000
aatp77
Rp78
(dp79
g9
g1
(g10
g11
Ntp80
Rp81
(dp82
g15
(g16
(g20
S'\xd2\x84\x8eX\xf7\xbf[\xc0'
p83
tp84
Rp85
F116.0
tp86
sbsbag1
(g2
g3
(lp87
(lp88
I6
aI7
aI3
aI19
aI16
aI4
aI15
aI8
aI1
aI14
aI3
aI2
aI5
aI16
aI1
aI7
aI14
aI5
aI7
aI17
aI1
aI17
aI0
aI0
aI5
aI11
aI0
aI19
aI19
aI0
aI6
aI12
aI0
aI-1000
aI-1000
aI-1000
aatp89
Rp90
(dp91
g9
g1
(g10
g11
Ntp92
Rp93
(dp94
g15
(g16
(g20
S'\x8d[AYI\xb8_\xc0'
p95
tp96
Rp97
F127.0
tp98
sbsbag1
(g2
g3
(lp99
(lp100
I3
aI8
aI3
aI18
aI16
aI4
aI12
aI9
aI2
aI14
aI2
aI2
aI3
aI16
aI3
aI7
aI13
aI1
aI9
aI15
aI1
aI7
aI2
aI1
aI1
aI11
aI1
aI17
aI9
aI0
aI-1000
aI-1000
aI-1000
aI-1000
aI-1000
aI-1000
aatp101
Rp102
(dp103
g9
g1
(g10
g11
Ntp104
Rp105
(dp106
g15
(g16
(g20
S'\x921u\xdb\xc2\x0f`\xc0'
p107
tp108
Rp109
F128.0
tp110
sbsbag1
(g2
g3
(lp111
(lp112
I8
aI5
aI2
aI18
aI15
aI1
aI13
aI8
aI3
aI14
aI3
aI1
aI5
aI17
aI4
aI7
aI12
aI1
aI9
aI11
aI1
aI10
aI3
aI1
aI10
aI10
aI1
aI1
aI14
aI1
aI-1000
aI-1000
aI-1000
aI-1000
aI-1000
aI-1000
aatp113
Rp114
(dp115
g9
g1
(g10
g11
Ntp116
Rp117
(dp118
g15
(g16
(g20
S'\x04@V\t~^`\xc0'
p119
tp120
Rp121
F140.0
tp122
sbsbag1
(g2
g3
(lp123
(lp124
I8
aI8
aI5
aI5
aI15
aI1
aI15
aI10
aI2
aI15
aI2
aI4
aI18
aI15
aI3
aI9
aI14
aI1
aI6
aI16
aI0
aI18
aI13
aI1
aI17
aI16
aI1
aI2
aI1
aI1
aI6
aI10
aI0
aI-1000
aI-1000
aI-1000
aatp125
Rp126
(dp127
g9
g1
(g10
g11
Ntp128
Rp129
(dp130
g15
(g16
(g20
S'\x12\x11f\xf3c\xb1`\xc0'
p131
tp132
Rp133
F151.0
tp134
sbsbag1
(g2
g3
(lp135
(lp136
I3
aI5
aI5
aI19
aI15
aI1
aI12
aI12
aI2
aI14
aI3
aI4
aI2
aI17
aI3
aI8
aI12
aI5
aI17
aI11
aI1
aI10
aI9
aI1
aI0
aI16
aI0
aI19
aI1
aI1
aI4
aI11
aI1
aI-1000
aI-1000
aI-1000
aatp137
Rp138
(dp139
g9
g1
(g10
g11
Ntp140
Rp141
(dp142
g15
(g16
(g20
S'\xf9\x89R\x06\xf4\x1ca\xc0'
p143
tp144
Rp145
F163.0
tp146
sbsbag1
(g2
g3
(lp147
(lp148
I7
aI3
aI4
aI19
aI16
aI3
aI15
aI11
aI1
aI13
aI3
aI2
aI4
aI16
aI5
aI9
aI12
aI4
aI17
aI9
aI1
aI15
aI4
aI1
aI19
aI14
aI1
aI15
aI7
aI1
aI1
aI17
aI1
aI-1000
aI-1000
aI-1000
aatp149
Rp150
(dp151
g9
g1
(g10
g11
Ntp152
Rp153
(dp154
g15
(g16
(g20
S'\x1d\xb9g\xc3f\xbfa\xc0'
p155
tp156
Rp157
F175.0
tp158
sbsbag1
(g2
g3
(lp159
(lp160
I3
aI3
aI1
aI18
aI16
aI5
aI7
aI13
aI6
aI13
aI12
aI4
aI14
aI2
aI3
aI3
aI17
aI2
aI1
aI1
aI1
aI7
aI17
aI0
aI10
aI1
aI1
aI13
aI15
aI0
aI18
aI18
aI1
aI11
aI11
aI1
aatp161
Rp162
(dp163
g9
g1
(g10
g11
Ntp164
Rp165
(dp166
g15
(g16
(g20
S'\xfd;\xac\xb1\x8e\rb\xc0'
p167
tp168
Rp169
F186.0
tp170
sbsbag1
(g2
g3
(lp171
(lp172
I9
aI9
aI2
aI13
aI12
aI6
aI2
aI16
aI5
aI14
aI1
aI3
aI19
aI15
aI4
aI9
aI13
aI1
aI2
aI9
aI0
aI11
aI9
aI1
aI15
aI0
aI1
aI17
aI19
aI1
aI6
aI18
aI1
aI13
aI15
aI1
aatp173
Rp174
(dp175
g9
g1
(g10
g11
Ntp176
Rp177
(dp178
g15
(g16
(g20
S'o\x99|\xbav\xedb\xc0'
p179
tp180
Rp181
F198.0
tp182
sbsbag1
(g2
g3
(lp183
(lp184
I18
aI15
aI4
aI12
aI10
aI5
aI13
aI1
aI2
aI5
aI8
aI6
aI9
aI14
aI1
aI2
aI16
aI3
aI10
aI19
aI1
aI10
aI0
aI1
aI4
aI14
aI1
aI20
aI16
aI1
aI10
aI17
aI1
aI10
aI8
aI1
aatp185
Rp186
(dp187
g9
g1
(g10
g11
Ntp188
Rp189
(dp190
g15
(g16
(g20
S'\x8e\x0f\xf0\x8cc\xb3c\xc0'
p191
tp192
Rp193
F210.0
tp194
sbsba.