(lp0
(lp1
F0.5513021963233142
aF0.4690967112797532
aF0.6899377970481178
aa(lp2
F0.5513636027828345
aF0.46911856050635053
aF0.6898738679749961
aa(lp3
F0.5513955611996695
aF0.4691990106215202
aF0.689793609365213
aa(lp4
F0.5513969852773245
aF0.4692011704553586
aF0.689791001876945
aa(lp5
F0.5513969852964701
aF0.4692011704716502
aF0.689791001850559
aa(lp6
F0.5513970335892072
aF0.4692012115654708
aF0.6897909352945405
aa(lp7
F0.5513970347105566
aF0.46920121251966246
aF0.6897909337491207
aa(lp8
F0.5513970717580293
aF0.46920116898211883
aF0.6897909337491207
aa(lp9
F0.5513971242802872
aF0.4691990753959169
aF0.6897923158335748
aa(lp10
F0.5513977502763943
aF0.4692011549301164
aF0.6897904009207261
aa(lp11
F0.5513978555183076
aF0.46920043565957487
aF0.6897908060467874
aa(lp12
F0.5514012093040294
aF0.46914670242360734
aF0.689824671915342
aa(lp13
F0.5514015363073645
aF0.4691905788868166
aF0.6897945682895248
aa(lp14
F0.5514019606349646
aF0.4691466790227579
aF0.6898240872641621
aa(lp15
F0.5514046990216346
aF0.46919440604474655
aF0.6897894368814139
aa(lp16
F0.5514064638808381
aF0.46919013129854525
aF0.6897909337491207
aa(lp17
F0.5514080714243685
aF0.4691882420581047
aF0.6897909337491207
aa(lp18
F0.5514089352125163
aF0.46920582353202994
aF0.6897782841837141
aa(lp19
F0.5514093142122232
aF0.46918678148208937
aF0.6897909337491207
aa(lp20
F0.5514093367280088
aF0.46920631187422374
aF0.6897776310279756
aa(lp21
F0.551417034188987
aF0.4691950903972758
aF0.689779110696543
aa(lp22
F0.5514212602841952
aF0.46919216994127383
aF0.6897777188141035
aa(lp23
F0.5514225757392643
aF0.4691712084189282
aF0.6897909249590037
aa(lp24
F0.551423168047984
aF0.46916026221210877
aF0.6897978965617322
aa(lp25
F0.5514232913019658
aF0.4691711507904301
aF0.6897903921306029
aa(lp26
F0.5514256009844957
aF0.46916732841723163
aF0.6897911455830129
aa(lp27
F0.5514368693686188
aF0.46915439550158017
aF0.6897909337491207
aa(lp28
F0.5514376901104089
aF0.46915361857180626
aF0.6897908060467874
aa(lp29
F0.5514376912318405
aF0.4691536195259009
aF0.6897908045013673
aa(lp30
F0.5514423065725665
aF0.4691682018372647
aF0.6897771965690918
aa(lp31
F0.5514437944124406
aF0.46915881200605714
aF0.6897823937453573
aa(lp32
F0.5514561026768434
aF0.46915492787908525
aF0.6897751956016084
aa(lp33
F0.5514577497602061
aF0.46912985190342144
aF0.6897909337491207
aa(lp34
F0.5515721198927503
aF0.4691682578257505
aF0.6896733592112774
aa(lp35
F0.5517792143631619
aF0.46765034495242574
aF0.6905380897985635
aa(lp36
F0.5518052306522261
aF0.46760937458914237
aF0.6905450457582001
aa(lp37
F0.5518565735388102
aF0.4674927841906353
aF0.6905829558942876
aa(lp38
F0.5518741605018332
aF0.4675076825876162
aF0.6905588155196872
aa(lp39
F0.5518969591697315
aF0.4675011082746319
aF0.6905450457582001
aa(lp40
F0.5519023948950633
aF0.46749469118686143
aF0.6905450457582001
aa(lp41
F0.5520009032265552
aF0.46767040997647036
aF0.6903472969958725
aa(lp42
F0.5520433401442002
aF0.4676203162106278
aF0.6903472969958725
aa(lp43
F0.5520601809323143
aF0.467634581566426
aF0.6903241664263058
aa(lp44
F0.5522366667052078
aF0.4680904936350865
aF0.6898738679749961
aa(lp45
F0.5522931385229489
aF0.46802426246992634
aF0.6898735963058394
aa(lp46
F0.5522972380088959
aF0.46801902437076504
aF0.6898738679749961
aa(lp47
F0.552300296812885
aF0.4681366711828029
aF0.6897915911594483
aa(lp48
F0.5523071138402124
aF0.46787196630855465
aF0.6899657057738895
aa(lp49
F0.5523147618337081
aF0.4678651449016833
aF0.6899642092505243
aa(lp50
F0.5523194578197522
aF0.46811436655133243
aF0.6897913861030304
aa(lp51
F0.5523202844471192
aF0.4681305105251902
aF0.6897797681170985
aa(lp52
F0.5523218246183554
aF0.46813181592925995
aF0.6897776489311784
aa(lp53
F0.5523247097310036
aF0.46810847773137465
aF0.6897911771663782
aa(lp54
F0.5523308345563264
aF0.468101609606107
aF0.6897909337491207
aa(lp55
F0.5523355736163755
aF0.46784057548610314
aF0.6899642092505243
aa(lp56
F0.5523404077630347
aF0.4680903162058605
aF0.6897909319688554
aa(lp57
F0.5523642620739593
aF0.46808077930374553
aF0.6897783020869015
aa(lp58
F0.552364664584127
aF0.46808126682643547
aF0.6897776489311784
aa(lp59
F0.5523709701709846
aF0.4680538198416875
aF0.6897912242439523
aa(lp60
F0.5523720697109059
aF0.46806578441264635
aF0.6897822251011287
aa(lp61
F0.5523733826280091
aF0.46807003809955844
aF0.6897782872761139
aa(lp62
F0.5523917112878752
aF0.46802976937153135
aF0.6897909337491207
aa(lp63
F0.5523966250770483
aF0.46804922620781253
aF0.6897737965809914
aa(lp64
F0.5523967388550394
aF0.46804932261263876
aF0.6897736400473473
aa(lp65
F0.5524038633332552
aF0.46801542655345296
aF0.6897909337491207
aa(lp66
F0.5524210046928223
aF0.4679684704429925
aF0.6898090636150114
aa(lp67
F0.552421869246213
aF0.467994173143252
aF0.6897909337491207
aa(lp68
F0.5524234410379183
aF0.4679974853270471
aF0.6897874277771275
aa(lp69
F0.552434000867976
aF0.46799776840027557
aF0.6897787786365734
aa(lp70
F0.5524356903155885
aF0.4679778582188
aF0.6897909337491207
aa(lp71
F0.5524359883620815
aF0.46797750638243957
aF0.6897909337491207
aa(lp72
F0.5524377665379662
aF0.4679697636222451
aF0.6897947625474432
aa(lp73
F0.5524478135640445
aF0.46796293421673757
aF0.6897913492408905
aa(lp74
F0.5524480970220722
aF0.4679569338763402
aF0.6897951928897054
aa(lp75
F0.5524496292730228
aF0.4680323870014155
aF0.6897427722229911
aa(lp76
F0.5524538764912514
aF0.46795638906558934
aF0.6897909337491207
aa(lp77
F0.5524579666907661
aF0.4679515602681762
aF0.6897909337491207
aa(lp78
F0.5524619268810846
aF0.46796646715530266
aF0.6897776489311784
aa(lp79
F0.5524620406737384
aF0.4679665635441098
aF0.6897774923983279
aa(lp80
F0.5524647150808885
aF0.4679435930837272
aF0.6897909337491207
aa(lp81
F0.552484329776246
aF0.4679153808661329
aF0.6897943618938867
aa(lp82
F0.5525023392068052
aF0.4683055620222401
aF0.6895150946498866
aa(lp83
F0.5525695479635655
aF0.46822905439994317
aF0.6895131958701559
aa(lp84
F0.5525709179843743
aF0.4682237152584854
aF0.6895157235824624
aa(lp85
F0.552571445003248
aF0.46781755619529575
aF0.6897909337491207
aa(lp86
F0.5525736851836693
aF0.4677328653486412
aF0.6898465692567362
aa(lp87
F0.5525737347300074
aF0.467732907287755
aF0.6898465011338941
aa(lp88
F0.5525763420134182
aF0.46822831133646914
aF0.6895082557229235
aa(lp89
F0.552580712954254
aF0.4682643491292489
aF0.6894802789097954
aa(lp90
F0.5525850742209943
aF0.46771964221953
aF0.6898464119137049
aa(lp91
F0.5526141514558549
aF0.46776711852780417
aF0.6897909266110425
aa(lp92
F0.552635229513802
aF0.46814780789060695
aF0.6895157235824624
aa(lp93
F0.5526566847296502
aF0.4681224794390729
aF0.6895157235824624
aa(lp94
F0.5526721644444292
aF0.46819953009872145
aF0.6894509980148308
aa(lp95
F0.5526727148450841
aF0.4681999963739285
aF0.6894502401632897
aa(lp96
F0.5526734758522099
aF0.46820378325102896
aF0.6894470584742967
aa(lp97
F0.552677910366345
aF0.46815784271689753
aF0.6894746998228078
aa(lp98
F0.5526925905417819
aF0.4681672238619539
aF0.6894565619831357
aa(lp99
F0.5526998354793413
aF0.4681319580688314
aF0.6894746998228078
aa(lp100
F0.5527068080898068
aF0.4681526598972034
aF0.6894550538812163
aa(lp101
F0.5527179090003868
aF0.46813978555716146
aF0.689454896457147
aa(lp102
F0.5527182071500082
aF0.468139433541061
aF0.689454896457147
aa(lp103
F0.5527202462388229
aF0.46818746071445216
aF0.6894206488258445
aa(lp104
F0.5530240250433234
aF0.4686048752988987
aF0.6888932417806006
aa(lp105
F0.5530883214590796
aF0.46850549035795197
aF0.6889092205581464
aa(lp106
F0.5530883889258675
aF0.4685289056871551
aF0.6888932417806006
aa.