(lp0
(lp1
F0.028058054223460242
aF0.14027979658196196
aF5.69608545880216
aa(lp2
F0.032427268129007064
aF0.13490297885869262
aF5.69415618266696
aa(lp3
F0.034481569086976846
aF0.13805686854451493
aF5.691044316349328
aa(lp4
F0.0449457795079548
aF0.14027979658196196
aF5.668056359917162
aa(lp5
F0.05871766485750308
aF0.10991096212570886
aF5.706651394469545
aa(lp6
F0.05871766485750308
aF0.11703423303174215
aF5.689778400286561
aa(lp7
F0.05872168850345069
aF0.10781470147996008
aF5.713057312845416
aa(lp8
F0.0804910128195499
aF0.09189574389604102
aF5.705836491246953
aa(lp9
F0.08083767678220535
aF0.0905851854437933
aF5.737769078733864
aa(lp10
F0.09379556689061086
aF0.8304191991720284
aF4.176742867993887
aa(lp11
F0.10309794666242711
aF0.20444627285626538
aF5.4179204811639305
aa(lp12
F0.10309794666242711
aF0.20494530784585757
aF5.417291846484064
aa(lp13
F0.10309794666242711
aF0.21023408846329084
aF5.410987082642029
aa(lp14
F0.10316616727869107
aF0.20494530784585757
aF5.417134054774741
aa(lp15
F0.1042342400814284
aF0.1979346389846185
aF5.436709360363371
aa(lp16
F0.10423645153976291
aF0.20494530784585757
aF5.414587369986241
aa(lp17
F0.10824548640831239
aF0.22707238330480745
aF5.384891038114207
aa(lp18
F0.10980115009399126
aF0.20494530784585757
aF5.401324634897921
aa(lp19
F0.10980115009399126
aF0.24110363312295918
aF5.372753525586057
aa(lp20
F0.10990730657514769
aF0.23831160716853772
aF5.381164574565649
aa(lp21
F0.11015304325532671
aF0.23116086978594325
aF5.382148642082877
aa(lp22
F0.11167982660533943
aF0.22707238330480745
aF5.376688809953068
aa(lp23
F0.12155050347285001
aF0.22608362955076566
aF5.3526778251983655
aa(lp24
F0.12226282770721097
aF0.17483810254327187
aF5.4194546877311085
aa(lp25
F0.12226282770721097
aF0.17823345323021617
aF5.411436619653597
aa(lp26
F0.12226282770721097
aF0.18651593606774075
aF5.3981519711209485
aa(lp27
F0.12263620901391123
aF0.18918960821331793
aF5.394407838594578
aa(lp28
F0.13014772229913774
aF0.21803779301787768
aF5.346550850464511
aa(lp29
F0.13666510909201873
aF0.18228092656767486
aF5.371572572864462
aa(lp30
F0.14359200556774
aF0.19065884192696908
aF5.342131444686938
aa(lp31
F0.15984116678037052
aF0.7866147740353453
aF4.182765433960061
aa(lp32
F0.16408163390041705
aF0.7841350741973003
aF4.1888969711088615
aa(lp33
F0.17467879393833563
aF0.6727272421520972
aF4.940933545098397
aa(lp34
F0.20444427213370053
aF0.6718754015136823
aF4.90763642608428
aa(lp35
F0.20444427213370053
aF0.6757138153496398
aF4.872920217730092
aa(lp36
F0.21303591717053538
aF0.6653695804415062
aF4.951513192688227
aa(lp37
F0.22026606889764366
aF0.6710828179191773
aF4.90277302602618
aa(lp38
F0.22135862094717973
aF0.6649566199999316
aF4.946603675600749
aa(lp39
F0.22135862094717973
aF0.6653695804415062
aF4.943607973481128
aa(lp40
F0.22135862094717973
aF0.6710828179191773
aF4.901837723327891
aa(lp41
F0.22135862094717973
aF0.6714957783607519
aF4.898796559356724
aa(lp42
F0.22910987196418314
aF0.6687629443158458
aF4.913148400311816
aa(lp43
F0.2342941952195775
aF0.6653695804415062
aF4.934975976430366
aa(lp44
F0.26364240566904673
aF0.669695808824743
aF4.888126286774022
aa(lp45
F0.6456350673883565
aF0.21650169423708096
aF5.088746331656144
aa(lp46
F0.6456350673883565
aF0.2169770745124358
aF5.08828898216844
aa(lp47
F0.6456350673883565
aF0.2172743361339145
aF5.088005951882734
aa(lp48
F0.6456350673883565
aF0.22740560320759323
aF5.079747784983701
aa(lp49
F0.6456467977637909
aF0.2129212407554796
aF5.092296846390038
aa(lp50
F0.646263196701347
aF0.2172743361339145
aF5.08374835677379
aa(lp51
F0.6471459301573033
aF0.20494530784585757
aF5.091329945100454
aa(lp52
F0.6497043547731989
aF0.2172743361339145
aF5.060220269825368
aa(lp53
F0.6507547663115395
aF0.2173415733247865
aF5.041260019320319
aa(lp54
F0.6507664966869738
aF0.21298847794635165
aF5.045541748072261
aa(lp55
F0.6507664966869738
aF0.2202425051090096
aF5.038542214810426
aa(lp56
F0.6630993499193765
aF0.15501622861903713
aF5.084770543290304
aa(lp57
F0.6638935116395794
aF0.14470273083989815
aF5.0693808295768354
aa(lp58
F0.6642173916650447
aF0.14289057959873924
aF5.07627687035363
aa(lp59
F0.6642173916650447
aF0.14462355920025613
aF5.072348172600899
aa(lp60
F0.6659371169651426
aF0.15501622861903713
aF5.0603978005290875
aa(lp61
F0.7037929726164844
aF0.7614149417098937
aF3.7056241396319938
aa(lp62
F0.7086892515220504
aF0.7429702258936255
aF3.7879988015249264
aa(lp63
F0.7143129749942045
aF0.7505455481085404
aF3.6927952281324354
aa(lp64
F0.7181442067416035
aF0.7429702258936255
aF3.717032990028264
aa(lp65
F0.7181442067416035
aF0.7443572349880597
aF3.7074535258148402
aa(lp66
F0.7298063690463128
aF0.19904794887214955
aF4.483738375835818
aa(lp67
F0.7329503661910084
aF0.1906103300845129
aF4.491179864469598
aa(lp68
F0.7419013521017699
aF0.14939816497378597
aF4.48637254920335
aa(lp69
F0.7428243300396208
aF0.7151428903220975
aF3.7409078218688165
aa(lp70
F0.7428243300396208
aF0.7152537289688652
aF3.7400777185586893
aa(lp71
F0.7469333102461977
aF0.15215455546358986
aF4.452573448651884
aa(lp72
F0.7481908457818838
aF0.14939091975516772
aF4.442777821260286
aa(lp73
F0.748645817726343
aF0.1673144680474815
aF4.411624722234668
aa(lp74
F0.7487279206600406
aF0.1673144680474815
aF4.401734461929396
aa(lp75
F0.7507489187443774
aF0.12808772868859253
aF4.474516971707104
aa(lp76
F0.7516943727540487
aF0.14035213089644494
aF4.43273232233208
aa(lp77
F0.7595414234154164
aF0.7783849935784556
aF3.268815694912768
aa(lp78
F0.7672001620448119
aF0.7024816944466326
aF3.7431682750453388
aa(lp79
F0.7672001620448119
aF0.7037236117854635
aF3.733759082949546
aa(lp80
F0.7690897576325562
aF0.8323586379895777
aF2.9357048884805477
aa(lp81
F0.7720655687157134
aF0.7542779673729096
aF3.2865524859025332
aa(lp82
F0.7728805449359157
aF0.8267608579761082
aF2.9485034671425265
aa(lp83
F0.7763071925286978
aF0.8227793429867152
aF2.9229987958998573
aa(lp84
F0.7788317025442989
aF0.8178267437432305
aF2.9188996401417295
aa(lp85
F0.7825354253645231
aF0.8182441844126269
aF2.914446125819544
aa(lp86
F0.7830426878688408
aF0.7429702258936255
aF3.2903240410335557
aa(lp87
F0.7832330532304639
aF0.803676295880646
aF2.9560511693968445
aa(lp88
F0.7832330532304639
aF0.804918213219477
aF2.9391004418611644
aa(lp89
F0.7854130235796666
aF0.20494530784585757
aF4.113507954677165
aa(lp90
F0.7876669363956914
aF0.8332009647906795
aF2.832280279549426
aa(lp91
F0.7892475537243568
aF0.8453810282981375
aF2.8110031416718115
aa(lp92
F0.7900817505204618
aF0.8453810282981375
aF2.8060909730220716
aa(lp93
F0.7912311085009691
aF0.8472316869897666
aF2.803390001511343
aa(lp94
F0.7940400139808188
aF0.18728885029785683
aF4.10341482625348
aa(lp95
F0.7947758704640064
aF0.8403237420704845
aF2.783893645015613
aa(lp96
F0.7947758704640064
aF0.8476110425472031
aF2.775064962810807
aa(lp97
F0.7993044951430159
aF0.16155421248318164
aF4.126367926593857
aa(lp98
F0.7994976967060604
aF0.14939091975516772
aF4.152664731465001
aa(lp99
F0.8002160830455299
aF0.8482998973691079
aF2.763237901043401
aa(lp100
F0.8003908450490325
aF0.8166998588512413
aF2.8236282004959605
aa(lp101
F0.8003908450490325
aF0.8170870629013312
aF2.8223983798096386
aa(lp102
F0.8010174072919622
aF0.8506277462513191
aF2.758031653122797
aa(lp103
F0.8010174072919622
aF0.8510149503014091
aF2.7577719327089847
aa(lp104
F0.8011123613294813
aF0.8223448452379055
aF2.8022571551934536
aa(lp105
F0.801259362056716
aF0.7283192280773176
aF3.3088879770640602
aa(lp106
F0.801259362056716
aF0.7283907273507494
aF3.3062594984075013
aa(lp107
F0.8017173188475495
aF0.8340492436859352
aF2.7770391671917025
aa(lp108
F0.8023907696010618
aF0.8453810282981375
aF2.7449547951201683
aa(lp109
F0.8025515156436546
aF0.8340492436859352
aF2.767196865531017
aa(lp110
F0.8034062331965406
aF0.8448257363311297
aF2.7432040761641625
aa(lp111
F0.806170772191445
aF0.8169345785477652
aF2.800450199646811
aa(lp112
F0.8121901693905077
aF0.13407217348731965
aF4.132363873907251
aa(lp113
F0.8127184272803158
aF0.8273146357871847
aF2.744665647709171
aa(lp114
F0.8133252141471621
aF0.7263836614139887
aF3.27475829110352
aa(lp115
F0.8138681672516885
aF0.8238281222675082
aF2.7566396188530806
aa(lp116
F0.8139193742761573
aF0.7181848538897477
aF3.3335447833112193
aa(lp117
F0.814200401619652
aF0.8127898122250703
aF2.7812509463207435
aa(lp118
F0.8145466540714118
aF0.8178031436508446
aF2.764889479940376
aa(lp119
F0.8146936547986465
aF0.7238490257636886
aF3.29079908175115
aa(lp120
F0.8147368145881966
aF0.16155421248318164
aF4.063103317038026
aa(lp121
F0.8161577045868502
aF0.1561898257787854
aF4.077879653374915
aa(lp122
F0.8164436845005238
aF0.8127898122250703
aF2.773884659964677
aa(lp123
F0.8169667288085714
aF0.8124493964757904
aF2.773396734859088
aa(lp124
F0.8169667288085714
aF0.8134056652025469
aF2.7701187610603735
aa(lp125
F0.8200278604970112
aF0.7229039681770658
aF3.2787370044608406
aa(lp126
F0.821007002905948
aF0.7256960031518385
aF3.2612302718677473
aa(lp127
F0.821007002905948
aF0.7257013217391373
aF3.261191254085053
aa(lp128
F0.821007002905948
aF0.7258121603859049
aF3.2603782449811245
aa(lp129
F0.8280461707824773
aF0.8116188746518653
aF2.7486219036867796
aa(lp130
F0.8293953223246242
aF0.1506454520393205
aF4.062247863523883
aa(lp131
F0.8314740138283181
aF0.7684392517615428
aF2.955310145177838
aa(lp132
F0.8330354560699702
aF0.1409134736522522
aF4.058846267828655
aa(lp133
F0.8352841977505133
aF0.12164919832100085
aF4.116683450383644
aa(lp134
F0.8352841977505133
aF0.1222848558082131
aF4.115168911977575
aa(lp135
F0.8352841977505133
aF0.12401783540972999
aF4.1110447289934875
aa(lp136
F0.8352841977505133
aF0.7810809837821453
aF2.878439614332475
aa(lp137
F0.8361432413245565
aF0.7718735736480492
aF2.9228926699570734
aa(lp138
F0.8376374033726829
aF0.7774880424491968
aF2.887732392121395
aa(lp139
F0.8467047034820825
aF0.12432375752120711
aF4.0855641603249495
aa(lp140
F0.8529331765380717
aF0.7684392517615428
aF2.9267751526551757
aa.