(lp0
(lp1
F0.37263048623992073
aF0.3726304862399207
aF0.8498782509566888
aa(lp2
F0.3726508167612723
aF0.37265081676127226
aF0.8498604223837661
aa(lp3
F0.37265084263658643
aF0.3726508426365864
aF0.8498603996919049
aa(lp4
F0.37265261060884836
aF0.3726526106088483
aF0.8498588492289881
aa(lp5
F0.37265274920580627
aF0.3726527492058062
aF0.8498587276828479
aa(lp6
F0.372652798133042
aF0.3726527981330419
aF0.8498586847748445
aa(lp7
F0.37265280236688464
aF0.3726528023668846
aF0.8498586810618666
aa(lp8
F0.3726528488449262
aF0.37265284884492617
aF0.8498586403017394
aa(lp9
F0.37265285113398094
aF0.3726528511339809
aF0.8498586382942931
aa(lp10
F0.3726528591741115
aF0.37265285917411145
aF0.8498586312432908
aa(lp11
F0.3726530246815202
aF0.3726530246815201
aF0.8498584860972023
aa(lp12
F0.3726530246815202
aF0.3726530246815201
aF0.8498584860972023
aa(lp13
F0.3726530364936959
aF0.37265303649369586
aF0.8498584757381998
aa(lp14
F0.37265304430076085
aF0.3726530443007608
aF0.8498584688915858
aa(lp15
F0.3726530952782575
aF0.37265309527825746
aF0.8498584241855038
aa(lp16
F0.37265310007737934
aF0.3726531000773793
aF0.8498584199767849
aa(lp17
F0.3726531077176787
aF0.3726531077176786
aF0.8498584132764189
aa(lp18
F0.3726531335929316
aF0.37265313359293156
aF0.8498583905844181
aa(lp19
F0.3726531335929316
aF0.37265313359293156
aF0.8498583905844181
aa(lp20
F0.3726531335929316
aF0.37265313359293156
aF0.8498583905844181
aa(lp21
F0.3726531335929316
aF0.37265313359293156
aF0.8498583905844181
aa(lp22
F0.3726531335929316
aF0.37265313359293156
aF0.8498583905844181
aa(lp23
F0.3726531335929316
aF0.37265313359293156
aF0.8498583905844181
aa(lp24
F0.3726531335929316
aF0.37265313359293156
aF0.8498583905844181
aa(lp25
F0.37265313630962354
aF0.3726531363096235
aF0.8498583882019417
aa(lp26
F0.3726531383904218
aF0.37265313839042175
aF0.8498583863771295
aa(lp27
F0.37265315320046877
aF0.3726531532004687
aF0.8498583733890582
aa(lp28
F0.37265317395215014
aF0.3726531739521501
aF0.8498583551903088
aa(lp29
F0.3726531795243762
aF0.37265317952437615
aF0.8498583503035939
aa(lp30
F0.3726531795243762
aF0.37265317952437615
aF0.8498583503035939
aa(lp31
F0.3726531795243762
aF0.37265317952437615
aF0.8498583503035939
aa(lp32
F0.3726531885014474
aF0.37265318850144735
aF0.8498583424309074
aa(lp33
F0.37265330804118757
aF0.3726533080411875
aF0.8498582375972592
aa(lp34
F0.37265331169974847
aF0.3726533116997484
aF0.8498582343887833
aa(lp35
F0.37265331169974847
aF0.3726533116997484
aF0.8498582343887833
aa(lp36
F0.37265337520141584
aF0.3726533752014158
aF0.8498581786992379
aa(lp37
F0.3726534137264016
aF0.37265341372640154
aF0.8498581449136784
aa(lp38
F0.3726534219908109
aF0.37265342199081086
aF0.8498581376659737
aa(lp39
F0.37265345339590406
aF0.372653453395904
aF0.849858110124398
aa(lp40
F0.37265349932110675
aF0.3726534993211067
aF0.849858069849
aa(lp41
F0.3726535247399274
aF0.37265352473992736
aF0.8498580475572475
aa(lp42
F0.37265352900120263
aF0.3726535290012026
aF0.8498580438202016
aa(lp43
F0.3726535312902558
aF0.37265353129025575
aF0.8498580418127517
aa(lp44
F0.3726535312902558
aF0.37265353129025575
aF0.8498580418127517
aa(lp45
F0.37265353773623383
aF0.3726535377362338
aF0.8498580361597687
aa(lp46
F0.37265353773623383
aF0.3726535377362338
aF0.8498580361597687
aa(lp47
F0.3726535469126481
aF0.37265354691264807
aF0.8498580281122521
aa(lp48
F0.37265354870911566
aF0.3726535487091156
aF0.849858026536789
aa(lp49
F0.3726535693339109
aF0.37265356933391086
aF0.8498580084492893
aa(lp50
F0.3726535693339109
aF0.37265356933391086
aF0.8498580084492893
aa(lp51
F0.3726535735990257
aF0.3726535735990256
aF0.8498580047088755
aa(lp52
F0.37265359109234514
aF0.3726535910923451
aF0.849857989367611
aa(lp53
F0.37265359753834315
aF0.3726535975383431
aF0.8498579837146093
aa(lp54
F0.37265360177218226
aF0.3726536017721822
aF0.8498579800016234
aa(lp55
F0.37265360533370245
aF0.3726536053337024
aF0.8498579768782466
aa(lp56
F0.3726536068166936
aF0.37265360681669357
aF0.8498579755776952
aa(lp57
F0.37265361234838323
aF0.3726536123483832
aF0.849857970726522
aa(lp58
F0.3726536144291804
aF0.3726536144291803
aF0.8498579689017074
aa(lp59
F0.37265361534940367
aF0.37265361534940356
aF0.8498579680946914
aa(lp60
F0.3726536158968384
aF0.3726536158968383
aF0.8498579676146029
aa(lp61
F0.37265361714587103
aF0.372653617145871
aF0.849857966519228
aa(lp62
F0.37265361714587103
aF0.372653617145871
aF0.849857966519228
aa(lp63
F0.37265361714587103
aF0.372653617145871
aF0.849857966519228
aa(lp64
F0.37265361714587103
aF0.372653617145871
aF0.849857966519228
aa(lp65
F0.37265361714587103
aF0.372653617145871
aF0.849857966519228
aa(lp66
F0.37265361714587103
aF0.372653617145871
aF0.849857966519228
aa(lp67
F0.37265361714587103
aF0.372653617145871
aF0.849857966519228
aa(lp68
F0.37265361714587103
aF0.372653617145871
aF0.849857966519228
aa(lp69
F0.37265361714587103
aF0.372653617145871
aF0.849857966519228
aa(lp70
F0.37265361714587103
aF0.372653617145871
aF0.849857966519228
aa(lp71
F0.37265361714587103
aF0.372653617145871
aF0.849857966519228
aa(lp72
F0.37265361714587103
aF0.372653617145871
aF0.849857966519228
aa(lp73
F0.37265361714587103
aF0.372653617145871
aF0.849857966519228
aa(lp74
F0.37265361714587103
aF0.372653617145871
aF0.849857966519228
aa(lp75
F0.37265361714587103
aF0.372653617145871
aF0.849857966519228
aa(lp76
F0.37265361714587103
aF0.372653617145871
aF0.849857966519228
aa(lp77
F0.37265361714587103
aF0.372653617145871
aF0.849857966519228
aa(lp78
F0.37265361714587103
aF0.372653617145871
aF0.849857966519228
aa(lp79
F0.37265361714587103
aF0.372653617145871
aF0.849857966519228
aa(lp80
F0.37265361714587103
aF0.372653617145871
aF0.849857966519228
aa(lp81
F0.37265361714587103
aF0.372653617145871
aF0.849857966519228
aa(lp82
F0.37265361714587103
aF0.372653617145871
aF0.849857966519228
aa(lp83
F0.37265361714587103
aF0.372653617145871
aF0.849857966519228
aa(lp84
F0.37265361714587103
aF0.372653617145871
aF0.849857966519228
aa(lp85
F0.37265361714587103
aF0.372653617145871
aF0.849857966519228
aa(lp86
F0.37265361714587103
aF0.372653617145871
aF0.849857966519228
aa(lp87
F0.37265361714587103
aF0.372653617145871
aF0.849857966519228
aa(lp88
F0.37265361714587103
aF0.372653617145871
aF0.849857966519228
aa(lp89
F0.37265361714587103
aF0.372653617145871
aF0.849857966519228
aa(lp90
F0.37265361714587103
aF0.372653617145871
aF0.849857966519228
aa(lp91
F0.37265361714587103
aF0.372653617145871
aF0.849857966519228
aa.