(lp0
(lp1
F0.280577307237169
aF0.28057730723716895
aF0.9179067214739625
aa(lp2
F0.280577307237169
aF0.28057730723716895
aF0.9179067214739625
aa(lp3
F0.280577307237169
aF0.28057730723716895
aF0.9179067214739625
aa(lp4
F0.280577307237169
aF0.28057730723716895
aF0.9179067214739625
aa(lp5
F0.280577307237169
aF0.28057730723716895
aF0.9179067214739625
aa(lp6
F0.280577307237169
aF0.28057730723716895
aF0.9179067214739625
aa(lp7
F0.280577307237169
aF0.28057730723716895
aF0.9179067214739625
aa(lp8
F0.280577307237169
aF0.28057730723716895
aF0.9179067214739625
aa(lp9
F0.280577307237169
aF0.28057730723716895
aF0.9179067214739625
aa(lp10
F0.280577307237169
aF0.28057730723716895
aF0.9179067214739625
aa(lp11
F0.280577307237169
aF0.28057730723716895
aF0.9179067214739625
aa(lp12
F0.280577307237169
aF0.28057730723716895
aF0.9179067214739625
aa(lp13
F0.280577307237169
aF0.28057730723716895
aF0.9179067214739625
aa(lp14
F0.280577307237169
aF0.28057730723716895
aF0.9179067214739625
aa(lp15
F0.280577307237169
aF0.28057730723716895
aF0.9179067214739625
aa(lp16
F0.280577307237169
aF0.28057730723716895
aF0.9179067214739625
aa(lp17
F0.280577307237169
aF0.28057730723716895
aF0.9179067214739625
aa(lp18
F0.280577307237169
aF0.28057730723716895
aF0.9179067214739625
aa(lp19
F0.280577307237169
aF0.28057730723716895
aF0.9179067214739625
aa(lp20
F0.280577307237169
aF0.28057730723716895
aF0.9179067214739625
aa(lp21
F0.280577307237169
aF0.28057730723716895
aF0.9179067214739625
aa(lp22
F0.280577307237169
aF0.28057730723716895
aF0.9179067214739625
aa(lp23
F0.280577307237169
aF0.28057730723716895
aF0.9179067214739625
aa(lp24
F0.280577307237169
aF0.28057730723716895
aF0.9179067214739625
aa(lp25
F0.280577307237169
aF0.28057730723716895
aF0.9179067214739625
aa(lp26
F0.280577307237169
aF0.28057730723716895
aF0.9179067214739625
aa(lp27
F0.280577307237169
aF0.28057730723716895
aF0.9179067214739625
aa(lp28
F0.280577307237169
aF0.28057730723716895
aF0.9179067214739625
aa(lp29
F0.280577307237169
aF0.28057730723716895
aF0.9179067214739625
aa(lp30
F0.280577307237169
aF0.28057730723716895
aF0.9179067214739625
aa(lp31
F0.280577307237169
aF0.28057730723716895
aF0.9179067214739625
aa(lp32
F0.280577307237169
aF0.28057730723716895
aF0.9179067214739625
aa(lp33
F0.280577307237169
aF0.28057730723716895
aF0.9179067214739625
aa(lp34
F0.280577307237169
aF0.28057730723716895
aF0.9179067214739625
aa(lp35
F0.280577307237169
aF0.28057730723716895
aF0.9179067214739625
aa.