(lp0
(lp1
F0.3037481767895486
aF0.3037481767895485
aF0.9030360403627589
aa(lp2
F0.30374817831285356
aF0.3037481783128535
aF0.9030360393379911
aa(lp3
F0.3037481786256098
aF0.30374817862560977
aF0.9030360391275917
aa(lp4
F0.30374817949519217
aF0.3037481794951921
aF0.9030360385426005
aa(lp5
F0.30374818023439865
aF0.3037481802343986
aF0.9030360380453166
aa(lp6
F0.30374818869509285
aF0.3037481886950928
aF0.9030360323535825
aa(lp7
F0.3037481908031886
aF0.30374819080318854
aF0.9030360309354104
aa(lp8
F0.3037482045168958
aF0.30374820451689577
aF0.9030360217098342
aa(lp9
F0.3037482266043171
aF0.30374822660431705
aF0.9030360068510364
aa(lp10
F0.3037482539887568
aF0.30374825398875677
aF0.903035988428791
aa(lp11
F0.3037482539887568
aF0.30374825398875677
aF0.903035988428791
aa(lp12
F0.30374825683264545
aF0.3037482568326454
aF0.9030359865156308
aa(lp13
F0.30374825703419905
aF0.30374825703419905
aF0.9030359863800403
aa(lp14
F0.30374825896413943
aF0.30374825896413943
aF0.9030359850817177
aa(lp15
F0.303748259232845
aF0.30374825923284493
aF0.9030359849009523
aa(lp16
F0.303748259232845
aF0.30374825923284493
aF0.9030359849009523
aa(lp17
F0.3037482693001425
aF0.3037482693001425
aF0.9030359781284112
aa(lp18
F0.3037482693001425
aF0.3037482693001425
aF0.9030359781284112
aa(lp19
F0.3037482897907027
aF0.3037482897907026
aF0.9030359643438608
aa(lp20
F0.3037483157869588
aF0.30374831578695877
aF0.9030359468554792
aa(lp21
F0.30374833226244513
aF0.3037483322624451
aF0.9030359357719749
aa(lp22
F0.30374835817362916
aF0.30374835817362916
aF0.9030359183408206
aa(lp23
F0.3037483630459712
aF0.30374836304597114
aF0.9030359150630642
aa(lp24
F0.30374844678639595
aF0.3037484467863959
aF0.9030358587286023
aa(lp25
F0.30374846519228077
aF0.30374846519228077
aF0.9030358463464602
aa(lp26
F0.30374846920951026
aF0.3037484692095102
aF0.90303584364396
aa(lp27
F0.30374847180631115
aF0.30374847180631115
aF0.9030358418970208
aa(lp28
F0.30374847180631115
aF0.30374847180631115
aF0.9030358418970208
aa(lp29
F0.3037484759215614
aF0.3037484759215614
aF0.9030358391285792
aa(lp30
F0.3037484982649941
aF0.30374849826499406
aF0.9030358240975392
aa(lp31
F0.3037485027780434
aF0.3037485027780434
aF0.9030358210614869
aa(lp32
F0.3037485027780434
aF0.3037485027780434
aF0.9030358210614869
aa(lp33
F0.3037485832590696
aF0.3037485832590696
aF0.9030357669196808
aa(lp34
F0.3037485854692897
aF0.3037485854692896
aF0.9030357654328046
aa(lp35
F0.3037486035243628
aF0.3037486035243627
aF0.9030357532866564
aa(lp36
F0.3037486035243628
aF0.3037486035243627
aF0.9030357532866564
aa(lp37
F0.30374861687114507
aF0.303748616871145
aF0.9030357443079053
aa(lp38
F0.3037486248040029
aF0.30374862480400283
aF0.9030357389712514
aa(lp39
F0.3037486728359279
aF0.3037486728359278
aF0.9030357066588369
aa(lp40
F0.3037486728359279
aF0.3037486728359278
aF0.9030357066588369
aa(lp41
F0.303748677400493
aF0.303748677400493
aF0.9030357035881263
aa(lp42
F0.30374880760674206
aF0.303748807606742
aF0.9030356159947208
aa(lp43
F0.3037488115111549
aF0.30374881151115485
aF0.9030356133681118
aa(lp44
F0.30374883009589054
aF0.3037488300958905
aF0.9030356008656335
aa(lp45
F0.30374884887483555
aF0.3037488488748355
aF0.9030355882325041
aa(lp46
F0.3037488551264918
aF0.30374885512649175
aF0.9030355840268373
aa(lp47
F0.30374885586617434
aF0.3037488558661743
aF0.9030355835292317
aa(lp48
F0.30374885907104626
aF0.3037488590710462
aF0.9030355813732233
aa(lp49
F0.30374885907104626
aF0.3037488590710462
aF0.9030355813732233
aa(lp50
F0.30374885907104626
aF0.3037488590710462
aF0.9030355813732233
aa(lp51
F0.30374885907104626
aF0.3037488590710462
aF0.9030355813732233
aa(lp52
F0.30374885907104626
aF0.3037488590710462
aF0.9030355813732233
aa(lp53
F0.3037488656850747
aF0.3037488656850747
aF0.9030355769237782
aa(lp54
F0.30374886661167305
aF0.303748866611673
aF0.9030355763004292
aa(lp55
F0.30374886818861385
aF0.3037488681886138
aF0.9030355752395761
aa(lp56
F0.3037488700726634
aF0.3037488700726633
aF0.9030355739721224
aa(lp57
F0.3037488777293781
aF0.30374887772937803
aF0.9030355688212324
aa(lp58
F0.3037488982297012
aF0.30374889822970114
aF0.9030355550300804
aa(lp59
F0.3037489036113363
aF0.3037489036113362
aF0.9030355514097008
aa(lp60
F0.3037489042756154
aF0.30374890427561535
aF0.9030355509628212
aa(lp61
F0.3037489042756154
aF0.30374890427561535
aF0.9030355509628212
aa(lp62
F0.30374891452208674
aF0.30374891452208674
aF0.9030355440697271
aa(lp63
F0.3037489508080611
aF0.303748950808061
aF0.903035519659113
aa(lp64
F0.30374895340486097
aF0.3037489534048609
aF0.9030355179121712
aa(lp65
F0.30374895704200217
aF0.3037489570420021
aF0.9030355154653619
aa(lp66
F0.3037489603682645
aF0.30374896036826443
aF0.9030355132276897
aa(lp67
F0.3037490509320338
aF0.3037490509320338
aF0.9030354523028304
aa(lp68
F0.3037490687337566
aF0.3037490687337566
aF0.9030354403270955
aa(lp69
F0.30374907619559094
aF0.3037490761955909
aF0.903035435307303
aa(lp70
F0.30374907619559094
aF0.3037490761955909
aF0.903035435307303
aa(lp71
F0.3037492747954637
aF0.30374927479546365
aF0.9030353017033497
aa(lp72
F0.30374927917687516
aF0.3037492791768751
aF0.9030352987558445
aa(lp73
F0.30374927919629857
aF0.3037492791962985
aF0.9030352987427779
aa(lp74
F0.3037492832590977
aF0.30374928325909767
aF0.9030352960096127
aa(lp75
F0.3037492909158099
aF0.3037492909158098
aF0.9030352908587158
aa(lp76
F0.3037492909158099
aF0.3037492909158098
aF0.9030352908587158
aa(lp77
F0.3037492909158099
aF0.3037492909158098
aF0.9030352908587158
aa(lp78
F0.3037492909158099
aF0.3037492909158098
aF0.9030352908587158
aa(lp79
F0.3037492909158099
aF0.3037492909158098
aF0.9030352908587158
aa(lp80
F0.3037492909352334
aF0.3037492909352334
aF0.903035290845649
aa(lp81
F0.3037492990980508
aF0.30374929909805076
aF0.9030352853542799
aa(lp82
F0.30374930361007946
aF0.3037493036100794
aF0.9030352823189045
aa(lp83
F0.30374931757347573
aF0.3037493175734757
aF0.9030352729253136
aa(lp84
F0.30374941282033124
aF0.3037494128203312
aF0.9030352088499141
aa(lp85
F0.3037494338244419
aF0.30374943382444186
aF0.9030351947198193
aa(lp86
F0.30374945535007125
aF0.3037494553500712
aF0.9030351802388821
aa(lp87
F0.3037495051720442
aF0.30374950517204413
aF0.9030351467221398
aa(lp88
F0.3037495923565248
aF0.30374959235652477
aF0.9030350880704968
aa(lp89
F0.3037495988542674
aF0.30374959885426733
aF0.9030350836992677
aa(lp90
F0.303749600289377
aF0.3037496002893769
aF0.9030350827338257
aa(lp91
F0.303749600289377
aF0.3037496002893769
aF0.9030350827338257
aa(lp92
F0.3037496223229132
aF0.30374962232291314
aF0.9030350679111943
aa(lp93
F0.30374963065221816
aF0.30374963065221816
aF0.9030350623078165
aa(lp94
F0.3037496307835983
aF0.30374963078359823
aF0.9030350622194331
aa(lp95
F0.3037496444246496
aF0.3037496444246495
aF0.9030350530426812
aa(lp96
F0.30374975437900376
aF0.30374975437900376
aF0.903034979073009
aa(lp97
F0.30374975801521553
aF0.3037497580152155
aF0.9030349766268171
aa(lp98
F0.30374976191962566
aF0.3037497619196256
aF0.9030349740001998
aa(lp99
F0.30374976191962566
aF0.3037497619196256
aF0.9030349740001998
aa(lp100
F0.30374976191962566
aF0.3037497619196256
aF0.9030349740001998
aa(lp101
F0.30374976191962566
aF0.3037497619196256
aF0.9030349740001998
aa(lp102
F0.3037497751618056
aF0.30374977516180557
aF0.9030349650917759
aa(lp103
F0.3037497751618056
aF0.30374977516180557
aF0.9030349650917759
aa(lp104
F0.30374977997468305
aF0.303749779974683
aF0.9030349618540044
aa(lp105
F0.3037497908947611
aF0.30374979089476106
aF0.9030349545077299
aa(lp106
F0.30374980594529877
aF0.3037498059452987
aF0.9030349443827668
aa(lp107
F0.30375035320632376
aF0.3037503532063237
aF0.903034576222897
aa(lp108
F0.30375036610816225
aF0.3037503661081622
aF0.9030345675434107
aa(lp109
F0.30375078713761205
aF0.303750787137612
aF0.9030342843029617
aa(lp110
F0.30375078713761205
aF0.303750787137612
aF0.9030342843029617
aa(lp111
F0.30375080994696163
aF0.3037508099469616
aF0.9030342689583434
aa(lp112
F0.30375193176497245
aF0.3037519317649724
aF0.9030335142718099
aa(lp113
F0.3037519733958334
aF0.3037519733958333
aF0.903033486265196
aa(lp114
F0.3037520108151358
aF0.30375201081513575
aF0.9030334610918486
aa(lp115
F0.3037520975957489
aF0.30375209759574884
aF0.903033402711309
aa(lp116
F0.3037520975957489
aF0.30375209759574884
aF0.903033402711309
aa(lp117
F0.3037521225040617
aF0.30375212250406164
aF0.9030333859545587
aa(lp118
F0.30375212429337867
aF0.30375212429337867
aF0.9030333847508184
aa(lp119
F0.3037521737650952
aF0.30375217376509517
aF0.9030333514693457
aa(lp120
F0.3037521996563041
aF0.30375219965630407
aF0.9030333340513591
aa(lp121
F0.3037522006869553
aF0.30375220068695524
aF0.9030333333580014
aa(lp122
F0.30375221168854516
aF0.3037522116885451
aF0.903033325956819
aa(lp123
F0.30375221168854516
aF0.3037522116885451
aF0.903033325956819
aa(lp124
F0.30375221168854516
aF0.3037522116885451
aF0.903033325956819
aa(lp125
F0.30375221168854516
aF0.3037522116885451
aF0.903033325956819
aa(lp126
F0.30375221168854516
aF0.3037522116885451
aF0.903033325956819
aa(lp127
F0.30375221168854516
aF0.3037522116885451
aF0.903033325956819
aa(lp128
F0.30375221168854516
aF0.3037522116885451
aF0.903033325956819
aa(lp129
F0.30375221168854516
aF0.3037522116885451
aF0.903033325956819
aa(lp130
F0.30375221168854516
aF0.3037522116885451
aF0.903033325956819
aa(lp131
F0.30375221168854516
aF0.3037522116885451
aF0.903033325956819
aa(lp132
F0.3037522134778621
aF0.303752213477862
aF0.9030333247530784
aa(lp133
F0.3037522158127799
aF0.30375221581277984
aF0.9030333231822915
aa(lp134
F0.30375223510532673
aF0.3037522351053267
aF0.9030333102034701
aa(lp135
F0.3037522369520427
aF0.3037522369520426
aF0.9030333089611149
aa(lp136
F0.30375243347660463
aF0.3037524334766046
aF0.9030331767515974
aa(lp137
F0.3037525133733635
aF0.30375251337336345
aF0.9030331230019911
aa.