(lp0
(lp1
F2.9369380449969715e-07
aF0.1197709560832872
aF5.774827760892651
aa(lp2
F1.7677104723760385e-06
aF0.11634223188643261
aF5.781289894712227
aa(lp3
F2.024438733623941e-06
aF0.11898682438406068
aF5.775029414658371
aa(lp4
F2.332166358354559e-06
aF0.11890763326686753
aF5.780848233833514
aa(lp5
F2.932398640026132e-06
aF0.11882872961107291
aF5.7800031508278495
aa(lp6
F2.932398640026132e-06
aF0.11886766782745836
aF5.779957105047676
aa(lp7
F3.2410638700075545e-06
aF0.11888193233473474
aF5.775362450768516
aa(lp8
F3.2410638700075545e-06
aF0.1188926800185372
aF5.775329747819636
aa(lp9
F3.2410638700075545e-06
aF0.11891182014271512
aF5.775282512906984
aa(lp10
F3.6389591853713052e-06
aF0.118746044865531
aF5.780247583223427
aa(lp11
F4.470951530139745e-06
aF0.11634223188643261
aF5.780983700227771
aa(lp12
F4.470951530139745e-06
aF0.11982178634290014
aF5.774030909515228
aa(lp13
F4.470951530139745e-06
aF0.11982405422944395
aF5.7730814909273915
aa(lp14
F7.425552498725092e-06
aF0.12117407772582083
aF5.7694311275178585
aa(lp15
F7.639530045504462e-06
aF0.12156821075320942
aF5.768258326554324
aa(lp16
F8.718027667460777e-06
aF0.11725619014688732
aF5.779040015595164
aa(lp17
F8.787626913444452e-06
aF0.11982178634290014
aF5.772941852230665
aa(lp18
F1.2195479112715214e-05
aF0.11639438166463521
aF5.780794526170022
aa(lp19
F1.2195479112715214e-05
aF0.11867860816767245
aF5.7756523437945395
aa(lp20
F1.2195479112715214e-05
aF0.1188998988810895
aF5.774901006875127
aa(lp21
F1.2195479112715214e-05
aF0.11982178634290014
aF5.772528414990885
aa(lp22
F1.2195479112715214e-05
aF0.12095161970353159
aF5.7722543754527775
aa(lp23
F1.2195479112715214e-05
aF0.12099206686833588
aF5.772157922532971
aa(lp24
F1.2195479112715214e-05
aF0.12106663651242644
aF5.769846858209747
aa(lp25
F1.2592631018876546e-05
aF0.12155249031621472
aF5.769236493376322
aa(lp26
F1.483624753340334e-05
aF0.1198027613100231
aF5.772836050069037
aa(lp27
F1.739174888173501e-05
aF0.12150069506430415
aF5.769243575286395
aa(lp28
F2.8742566130986712e-05
aF0.11665308415513148
aF5.780621112587606
aa(lp29
F3.573311137345853e-05
aF0.12131634187508769
aF5.76917901341232
aa(lp30
F3.642666189088671e-05
aF0.12117055344483645
aF5.769456944642718
aa(lp31
F3.642666189088671e-05
aF0.12119471891316033
aF5.769199690868935
aa(lp32
F7.245559954136222e-05
aF0.12038957229658644
aF5.77168457712129
aa(lp33
F7.295799297915291e-05
aF0.12038957229658644
aF5.771615533920223
aa(lp34
F7.371072961021267e-05
aF0.12035851795254604
aF5.771669693057557
aa(lp35
F7.441012673186417e-05
aF0.12035857665425535
aF5.7716688526350985
aa(lp36
F7.645464869390057e-05
aF0.11671858131643033
aF5.780074669868092
aa(lp37
F8.086883707946607e-05
aF0.11889846320490738
aF5.775171729419213
aa(lp38
F0.00011026540761972488
aF0.11653004177083962
aF5.780314057690928
aa(lp39
F0.00011391300832696064
aF0.12116196740410172
aF5.769786383043242
aa(lp40
F0.00012965871760130926
aF0.11889846320490738
aF5.7751212151370455
aa(lp41
F0.0001490088285709375
aF0.11623230541135418
aF5.781495826657675
aa(lp42
F0.00016095025243525758
aF0.12116923445453792
aF5.7693941521626675
aa(lp43
F0.00016313415607125238
aF0.119163778953728
aF5.774447021861227
aa(lp44
F0.0001669514929349487
aF0.12019162026835807
aF5.7717254362013515
aa(lp45
F0.00017053792118496176
aF0.11978627658659545
aF5.7739237029632955
aa(lp46
F0.00017084242392519143
aF0.1200406799635626
aF5.7720753162728275
aa(lp47
F0.00017084242392519143
aF0.12019162026835807
aF5.771714851521797
aa(lp48
F0.00018652884304931147
aF0.12018893416443319
aF5.772067435847778
aa(lp49
F0.0001893880344020292
aF0.1211895823329279
aF5.769363889855281
aa(lp50
F0.00018963179324710632
aF0.12019130526996477
aF5.771765440480324
aa(lp51
F0.00019109046891232096
aF0.12035851795254604
aF5.771021345587383
aa(lp52
F0.00019744373518084377
aF0.11882211555935254
aF5.775300458268634
aa(lp53
F0.00023154010633794078
aF0.12033186668807673
aF5.771472174544608
aa(lp54
F0.00023162320036869616
aF0.12149446972720675
aF5.769002498547356
aa(lp55
F0.00026102388753648244
aF0.12007772924820304
aF5.771841140620386
aa(lp56
F0.0002831307588879665
aF0.12177441542259126
aF5.768197695529981
aa(lp57
F0.0002892139182220975
aF0.11898682438406068
aF5.774670506116131
aa(lp58
F0.00029053293849427944
aF0.1203271862931823
aF5.771461430483822
aa(lp59
F0.00029078965255653145
aF0.12177441542259126
aF5.7679539089348495
aa(lp60
F0.00029172157287363616
aF0.12116923445453792
aF5.769364922227128
aa(lp61
F0.0002922049327711909
aF0.1203227004978078
aF5.771470451656463
aa(lp62
F0.0002922049327711909
aF0.12033809202517415
aF5.771416536028672
aa(lp63
F0.0003035086882352255
aF0.12033809202517415
aF5.77111887194089
aa(lp64
F0.000310476860138199
aF0.1189088636086771
aF5.774852503512664
aa(lp65
F0.0003244929283559425
aF0.11913950580001197
aF5.773801655693572
aa(lp66
F0.0003244929283559425
aF0.12156821075320942
aF5.767821027795095
aa(lp67
F0.0003337330405344572
aF0.12033501367153122
aF5.771254945762307
aa(lp68
F0.0003409800982447876
aF0.11680423779922307
aF5.779562846332561
aa(lp69
F0.0003774402972134784
aF0.12150412011555041
aF5.768056033372745
aa(lp70
F0.0003774402972134784
aF0.12152687800893267
aF5.767996738856078
aa(lp71
F0.0003774402972134784
aF0.12165506042034588
aF5.767695979461012
aa(lp72
F0.00043107643372552323
aF0.12156821075320942
aF5.767811414330668
aa(lp73
F0.0004330809873448298
aF0.1189088636086771
aF5.774726450959852
aa(lp74
F0.0004330809873448298
aF0.11898682438406068
aF5.774599755202847
aa(lp75
F0.0004454941095564848
aF0.12148877689604384
aF5.7689243418221325
aa(lp76
F0.00045635901410054445
aF0.12148877689604384
aF5.768883857175276
aa(lp77
F0.0004886007128636076
aF0.12111973595325999
aF5.769260511279485
aa(lp78
F0.0004886007128636076
aF0.12116923445453792
aF5.7690804460077665
aa(lp79
F0.0004886007128636076
aF0.12118837457871584
aF5.7690332821454975
aa(lp80
F0.0004886007128636076
aF0.12148499812651686
aF5.7683182074845245
aa(lp81
F0.0004910209992164511
aF0.12116923445453792
aF5.769078004353044
aa(lp82
F0.000509479800102935
aF0.12033803332346484
aF5.771069776670523
aa(lp83
F0.0005101677019450704
aF0.12033809202517415
aF5.7710689421069885
aa(lp84
F0.0005400914252025671
aF0.11625484397997186
aF5.781076633082662
aa(lp85
F0.0005673162359371444
aF0.11899457222434966
aF5.774323182908218
aa(lp86
F0.0006845484729592888
aF0.11671858131643033
aF5.779461132414163
aa(lp87
F0.0010355763510957756
aF0.11992348833720713
aF5.771502791098067
aa(lp88
F0.0011184972586065075
aF0.12036103920513543
aF5.770848446307424
aa(lp89
F0.0011234928680372343
aF0.12149446972720675
aF5.768095685840601
aa(lp90
F0.0011313389219530794
aF0.11904841852843674
aF5.774015961717671
aa(lp91
F0.0012425156603167987
aF0.12153003155262843
aF5.767745355863992
aa(lp92
F0.001275296709935609
aF0.12038957229658644
aF5.770143728922337
aa(lp93
F0.0012769175287687103
aF0.12028259901067938
aF5.770397088029326
aa(lp94
F0.0012802923193663358
aF0.12152300281865776
aF5.767395409745917
aa(lp95
F0.001514949588498477
aF0.12038812903806191
aF5.769537636266932
aa(lp96
F0.0015165704073315783
aF0.12028115575215487
aF5.769806308747727
aa(lp97
F0.0018998963605003753
aF0.12028115575215487
aF5.769591781805407
aa(lp98
F0.001955500548184692
aF0.12028115575215487
aF5.7695317879716095
aa(lp99
F0.001955500548184692
aF0.1202856588855345
aF5.769453671526938
aa(lp100
F0.0019907840963933054
aF0.11899457222434966
aF5.772636157926274
aa(lp101
F0.0020220198270115754
aF0.11671858131643033
aF5.7782438912629805
aa(lp102
F0.0020461407081042698
aF0.11897191748191782
aF5.774330357009299
aa(lp103
F0.0020515234505061467
aF0.1189088636086771
aF5.773236287762951
aa(lp104
F0.00205702411134546
aF0.12116923445453792
aF5.767473857995327
aa(lp105
F0.002166301588411237
aF0.11899457222434966
aF5.7724463760342415
aa(lp106
F0.002178734870481633
aF0.12010011788108506
aF5.770023057093948
aa(lp107
F0.002183705061195318
aF0.12028115575215487
aF5.769291304585571
aa(lp108
F0.0021842561088302355
aF0.11899457222434966
aF5.771943626435696
aa(lp109
F0.0021857548559389706
aF0.11899457222434966
aF5.771922966051562
aa(lp110
F0.0021857548559389706
aF0.12116923445453792
aF5.766940365027665
aa(lp111
F0.0022465247967246855
aF0.12028115575215487
aF5.769229239757966
aa(lp112
F0.002327503882655687
aF0.11625950265862643
aF5.779071849996325
aa(lp113
F0.002340472634621611
aF0.11670332400200364
aF5.7778400084486865
aa(lp114
F0.0023657970563491656
aF0.1166958449893496
aF5.777943977393721
aa(lp115
F0.0023825265161351626
aF0.11670332400200364
aF5.777780616995754
aa(lp116
F0.0023884764016390927
aF0.1203295604284843
aF5.768688662292182
aa(lp117
F0.0024221772500357354
aF0.11604014462412023
aF5.779229724952615
aa(lp118
F0.0024417488188522157
aF0.11689577436404217
aF5.77749720099953
aa(lp119
F0.002447835159398372
aF0.12026410206782094
aF5.769550561044255
aa(lp120
F0.002452341789142548
aF0.11689577436404217
aF5.777357122325598
aa(lp121
F0.0024891852492778324
aF0.1162519504515523
aF5.778890531544832
aa(lp122
F0.0024891852492778324
aF0.11686287043469398
aF5.77738791675482
aa(lp123
F0.0024891852492778324
aF0.11875746766800659
aF5.772996679396449
aa(lp124
F0.0024891852492778324
aF0.12026102371417802
aF5.769369814420494
aa(lp125
F0.0024891852492778324
aF0.12029062639653426
aF5.769150852089028
aa(lp126
F0.0024891852492778324
aF0.12033809202517415
aF5.7686618792089295
aa(lp127
F0.00251495543074987
aF0.12011554236413659
aF5.769364710306786
aa(lp128
F0.0027877865687537424
aF0.11547563028763208
aF5.7801490440314796
aa(lp129
F0.0027877865687537424
aF0.12038957229658644
aF5.768605180265851
aa(lp130
F0.0028391331351351762
aF0.11871591587330162
aF5.77298688595957
aa(lp131
F0.002984474338578959
aF0.11891182014271512
aF5.772107599533903
aa(lp132
F0.0036387401837804723
aF0.11671858131643033
aF5.776346869803951
aa(lp133
F0.0036410311968195913
aF0.11669582342304807
aF5.7765584844217495
aa(lp134
F0.003670484432534533
aF0.11886766782745836
aF5.771303953306986
aa(lp135
F0.004270333845637449
aF0.11604533657210803
aF5.777446295982014
aa(lp136
F0.004270333845637449
aF0.11988576954310345
aF5.76827186495895
aa(lp137
F0.004472996577650419
aF0.11709509484066132
aF5.77483915919422
aa(lp138
F0.004581295112632003
aF0.1197709560832872
aF5.769969704514955
aa(lp139
F0.004623001578204309
aF0.1197709560832872
aF5.76993298769067
aa(lp140
F0.004636038629910771
aF0.11976979969299975
aF5.770346935057355
aa(lp141
F0.004657781501797729
aF0.11623230541135418
aF5.776447268056112
aa(lp142
F0.004669378015773489
aF0.1150117478988001
aF5.780126190908836
aa(lp143
F0.004671808540436915
aF0.11975468928628072
aF5.769914348247645
aa(lp144
F0.004733270577855767
aF0.1162485018873215
aF5.77615723915727
aa(lp145
F0.004733270577855767
aF0.11976531766699734
aF5.767729433196242
aa(lp146
F0.0047346817352651146
aF0.11861692332138926
aF5.770983303179947
aa(lp147
F0.0047503973970630725
aF0.11870382873025744
aF5.770433187288542
aa(lp148
F0.004754561379780752
aF0.11975516538091754
aF5.769822092086069
aa(lp149
F0.0047626339493305496
aF0.11620720335750423
aF5.776491283247467
aa(lp150
F0.0047626339493305496
aF0.11666904909118413
aF5.775027702751709
aa(lp151
F0.004774091418242088
aF0.11972548006482159
aF5.768147214941416
aa(lp152
F0.004796248410858779
aF0.11992348833720713
aF5.767535492430429
aa(lp153
F0.004796248410858779
aF0.11993887986457347
aF5.767498760814773
aa(lp154
F0.004803929102927688
aF0.11875809898104805
aF5.770214937868352
aa(lp155
F0.004823435814350159
aF0.11723998532612948
aF5.7747566500169745
aa(lp156
F0.004862345298847152
aF0.11536216531112825
aF5.780088549894736
aa(lp157
F0.005130127674635485
aF0.11500774102429293
aF5.7804859895103675
aa(lp158
F0.00518294757539232
aF0.11500774102429293
aF5.780428039638799
aa(lp159
F0.0051965241812399685
aF0.11732616743348134
aF5.7741148588975895
aa(lp160
F0.005208437047936668
aF0.11671858131643033
aF5.774686089343943
aa(lp161
F0.005260186392664137
aF0.11604014462412023
aF5.776185933133401
aa(lp162
F0.005260186392664137
aF0.11624807499976444
aF5.775883632790606
aa(lp163
F0.005261654789528438
aF0.11606452476284342
aF5.776126709190706
aa(lp164
F0.005279639660701237
aF0.11604014462412023
aF5.775664180887677
aa(lp165
F0.005279757961519211
aF0.11689577436404217
aF5.774452655976055
aa(lp166
F0.005282241183711733
aF0.11873227127998778
aF5.769522987862285
aa(lp167
F0.0064697574624562135
aF0.11671858131643033
aF5.773400034518286
aa(lp168
F0.00648564756755324
aF0.11503039576672475
aF5.7772485697163125
aa(lp169
F0.006541004081564207
aF0.11500774102429293
aF5.7789381562585715
aa(lp170
F0.006578341803875614
aF0.11620720335750423
aF5.773876768474206
aa(lp171
F0.006687978044842457
aF0.11671858131643033
aF5.773155731926747
aa(lp172
F0.006688011492283115
aF0.11671858131643033
aF5.7731236285792
aa(lp173
F0.006757222085195419
aF0.11668596106659625
aF5.773063889419832
aa(lp174
F0.006757222085195419
aF0.11883053116273516
aF5.7682995379176365
aa(lp175
F0.0067730293826408425
aF0.11575567211571822
aF5.775145647071701
aa(lp176
F0.0068499563576238
aF0.11891450624663999
aF5.767814424684329
aa(lp177
F0.006871202874409784
aF0.11732616743348134
aF5.772243777622834
aa(lp178
F0.006883115741106484
aF0.11671858131643033
aF5.772626808763092
aa(lp179
F0.006972678016860521
aF0.11725619014688732
aF5.771319592513405
aa(lp180
F0.007013230540620116
aF0.11623230541135418
aF5.773693958147489
aa(lp181
F0.007023584524732597
aF0.1156906721480977
aF5.776866914043567
aa(lp182
F0.007024827054595876
aF0.1150117478988001
aF5.777039894609848
aa(lp183
F0.007102215250048095
aF0.1150117478988001
aF5.776575323370743
aa(lp184
F0.008667031660140422
aF0.11620720335750423
aF5.772355942096226
aa(lp185
F0.009358090213660417
aF0.11575567211571822
aF5.7741009480089165
aa(lp186
F0.009438004629087497
aF0.11575567211571822
aF5.773978506321402
aa(lp187
F0.009440573289732258
aF0.1162339992556697
aF5.77136448457244
aa(lp188
F0.009461318999471913
aF0.1157400796789788
aF5.772891012827297
aa(lp189
F0.00946320069621993
aF0.1150117478988001
aF5.774357734270075
aa(lp190
F0.00990053914686985
aF0.1157400796789788
aF5.772550637033857
aa.