(lp0
(lp1
F0.7184089115800265
aF0.3760247552716178
aF0.5852298857588544
aa(lp2
F0.7184090690790619
aF0.37602323082809225
aF0.5852306719085724
aa(lp3
F0.7184116000888177
aF0.37602616247278686
aF0.5852256812493912
aa(lp4
F0.7184185299783159
aF0.37600963238143154
aF0.5852277950851072
aa(lp5
F0.7184187757274237
aF0.3760082740173562
aF0.5852283661552969
aa(lp6
F0.71841912900071
aF0.37600845891463774
aF0.5852278136849788
aa(lp7
F0.7184195232218451
aF0.37600894919465533
aF0.5852270147380655
aa(lp8
F0.7184200492188256
aF0.37600922449281404
aF0.5852261921485852
aa(lp9
F0.7184221456708819
aF0.3760316821703449
aF0.5852091887639727
aa(lp10
F0.7184222445415772
aF0.37603173392057854
aF0.5852090341344071
aa(lp11
F0.7184246547288997
aF0.37603299544459845
aF0.5852052646846435
aa(lp12
F0.7184280640179324
aF0.3760347799117083
aF0.5851999326112393
aa(lp13
F0.71842866456154
aF0.376035101006837
aF0.5851989890174968
aa(lp14
F0.7184286673400024
aF0.3760350956984839
aF0.5851989890174968
aa(lp15
F0.718428782831673
aF0.3760351561483565
aF0.5851988083886381
aa(lp16
F0.7184291133426656
aF0.3760354130164002
aF0.5851982375736078
aa(lp17
F0.7184298997011637
aF0.37603574073266516
aF0.5851970616014847
aa(lp18
F0.7184301195488231
aF0.37603585580384674
aF0.5851967177581676
aa(lp19
F0.7184301994685574
aF0.3760358976348959
aF0.5851965927630536
aa(lp20
F0.7184302553385434
aF0.37603592687798787
aF0.5851965053819168
aa(lp21
F0.7184303602779737
aF0.37603598180467784
aF0.5851963412556959
aa(lp22
F0.7184303630071311
aF0.37603598323315507
aF0.5851963369872681
aa(lp23
F0.7184303843893647
aF0.37603599442489977
aF0.585196303545252
aa(lp24
F0.718430458707967
aF0.37603284263665526
aF0.5851982375736078
aa(lp25
F0.7184304753874671
aF0.3760360420545138
aF0.5851961612233235
aa(lp26
F0.7184305014286659
aF0.3760360556848228
aF0.5851961204946223
aa(lp27
F0.7184306773853841
aF0.37603614778290345
aF0.5851958452964039
aa(lp28
F0.7184307571859254
aF0.37603647351435765
aF0.585195538017972
aa(lp29
F0.7184310534908676
aF0.37603634464150315
aF0.5851952570626824
aa(lp30
F0.7184316708873165
aF0.3760334844701231
aF0.5851963369872681
aa(lp31
F0.7184324195926342
aF0.37603705967729156
aF0.5851931204547182
aa(lp32
F0.7184329933593295
aF0.3760373599943919
aF0.5851922230696525
aa(lp33
F0.7184359539166303
aF0.3760389095893601
aF0.585187592652772
aa(lp34
F0.7184362010510652
aF0.3760430181010071
aF0.585184649112397
aa(lp35
F0.7184362249605296
aF0.3760390514573329
aF0.5851871687276924
aa(lp36
F0.7184381546817356
aF0.3760400614990132
aF0.585184150541794
aa(lp37
F0.7184383940700558
aF0.37604018679803597
aF0.5851837761241654
aa(lp38
F0.718438454876863
aF0.37604021862512554
aF0.5851836810186298
aa(lp39
F0.7184385569974687
aF0.3760402720764054
aF0.5851835212957539
aa(lp40
F0.7184386102062745
aF0.37604029992660026
aF0.5851834380738995
aa(lp41
F0.718438613932889
aF0.3760403018771597
aF0.5851834322452439
aa(lp42
F0.7184386427316076
aF0.3760403169507911
aF0.5851833872022634
aa(lp43
F0.7184386512207568
aF0.37604032139412435
aF0.585183373924707
aa(lp44
F0.7184386779737144
aF0.37604033539697734
aF0.5851833320814173
aa(lp45
F0.7184386948969393
aF0.3760403442548178
aF0.5851833056124386
aa(lp46
F0.7184386964551119
aF0.37604034127787267
aF0.5851833056124386
aa(lp47
F0.718438717274863
aF0.3760403559677199
aF0.5851832706119682
aa(lp48
F0.7184387523850255
aF0.3760403743448448
aF0.5851832156974744
aa(lp49
F0.7184387554582873
aF0.37604037595343076
aF0.5851832108907002
aa(lp50
F0.7184387750086982
aF0.37604038618637525
aF0.5851831803126291
aa(lp51
F0.7184387768400412
aF0.37604038714492444
aF0.5851831774482934
aa(lp52
F0.7184387784030322
aF0.3760403841587736
aF0.5851831774482934
aa(lp53
F0.718438797195161
aF0.3760403977990641
aF0.5851831456116043
aa(lp54
F0.7184388020166458
aF0.37604040032269326
aF0.5851831380704979
aa(lp55
F0.718438905887923
aF0.3760404546902978
aF0.5851829756092347
aa(lp56
F0.7184389466286559
aF0.37604047601453794
aF0.5851829118881268
aa(lp57
F0.718438987318467
aF0.3760198871900774
aF0.5851960918686804
aa(lp58
F0.7184391278219366
aF0.37604057085350484
aF0.5851826284901367
aa(lp59
F0.7184391300816768
aF0.3760405720362829
aF0.5851826249557557
aa(lp60
F0.7184396582971885
aF0.3760408485112894
aF0.5851817987913916
aa(lp61
F0.718440375198786
aF0.3760412237470965
aF0.5851806775065406
aa(lp62
F0.7184431341586576
aF0.37604266782329565
aF0.5851763622674995
aa(lp63
F0.7184467003669773
aF0.3760231732649276
aF0.5851845109874122
aa(lp64
F0.7184475990783963
aF0.3760235314578161
aF0.5851831774482934
aa.