(lp0
(lp1
F0.09834283242049419
aF0.8382064513384814
aF4.2300177407182815
aa(lp2
F0.11006778697697328
aF0.7976087403644432
aF4.27398888881682
aa(lp3
F0.11006778697697328
aF0.819871699074857
aF4.183300147698913
aa(lp4
F0.12284262862904538
aF0.8142455721562655
aF4.178336194116071
aa(lp5
F0.1359240944986872
aF0.07562669485141543
aF5.614415576864222
aa(lp6
F0.137263697895239
aF0.07048214218758346
aF5.618913683676349
aa(lp7
F0.1390349592793016
aF0.09403712174026796
aF5.561188488885718
aa(lp8
F0.1400096864190558
aF0.8063283594993613
aF4.176594261142935
aa(lp9
F0.14678156059801167
aF0.7841058353477484
aF4.241627954170924
aa(lp10
F0.14678156059801167
aF0.7980187996887251
aF4.174707300223162
aa(lp11
F0.15056261122531822
aF0.07262822097332051
aF5.58694147610123
aa(lp12
F0.15317779641682178
aF0.04372936762315309
aF5.6496096286055
aa(lp13
F0.15317779641682178
aF0.07041306291082444
aF5.597069702743718
aa(lp14
F0.16118757555996255
aF0.07257866581683409
aF5.5879090937457105
aa(lp15
F0.16118757555996255
aF0.08619842173250247
aF5.557578867904718
aa(lp16
F0.16136453678881202
aF0.06843881078936742
aF5.574348155366852
aa(lp17
F0.16331371924998483
aF0.0639225582646316
aF5.574783347629256
aa(lp18
F0.16761208919307022
aF0.6904835094014994
aF4.863798593662025
aa(lp19
F0.16761208919307022
aF0.7890835347152545
aF4.197440793462709
aa(lp20
F0.16761208919307022
aF0.7911404330903467
aF4.187427230587308
aa(lp21
F0.16998925182653646
aF0.6904835094014994
aF4.859120954063042
aa(lp22
F0.17291245101327543
aF0.6904835094014994
aF4.853632554086141
aa(lp23
F0.17778503988044214
aF0.7760754470943287
aF4.221255767169302
aa(lp24
F0.17871097077491832
aF0.19811090195710668
aF5.292515746611908
aa(lp25
F0.1851585608330662
aF0.19811090195710668
aF5.281275312918625
aa(lp26
F0.18931478686495995
aF0.20947977643459337
aF5.236939052016155
aa(lp27
F0.19063971054288384
aF0.7702223778583116
aF4.227990342324284
aa(lp28
F0.20429565995420867
aF0.2087628057058524
aF5.222043333909519
aa(lp29
F0.20429565995420867
aF0.22002232821616052
aF5.210545820130978
aa(lp30
F0.20914011877239097
aF0.20771780364383868
aF5.232312903757931
aa(lp31
F0.2249265194755437
aF0.6742901798174888
aF4.880945005887434
aa(lp32
F0.2306055048099967
aF0.19282585432278393
aF5.233728113351009
aa(lp33
F0.23737518377387598
aF0.15959051328339224
aF5.297689192154076
aa(lp34
F0.23737518377387598
aF0.18866764142149872
aF5.243221608105174
aa(lp35
F0.24110184896498216
aF0.21345973030556636
aF5.208714595571185
aa(lp36
F0.24978828786241775
aF0.14978893181832104
aF5.2790328169410055
aa(lp37
F0.2540153162522242
aF0.6799224996803384
aF4.852802727616914
aa(lp38
F0.2566930089972344
aF0.1717104598575498
aF5.258853061952903
aa(lp39
F0.25780676367853517
aF0.1717104598575498
aF5.254745368619399
aa(lp40
F0.25780676367853517
aF0.18383254670417537
aF5.232217061196227
aa(lp41
F0.26030264558184735
aF0.1822716070413179
aF5.218181021210202
aa(lp42
F0.6874484684671935
aF0.14132462090730602
aF4.900254619582735
aa(lp43
F0.6903585444320711
aF0.14190595180453486
aF4.881706452103265
aa(lp44
F0.6960861091048843
aF0.14190595180453486
aF4.838310299693319
aa(lp45
F0.698514464295738
aF0.12417489925673462
aF4.870036065629202
aa(lp46
F0.6988412429058615
aF0.10317627722218681
aF4.907676392668808
aa(lp47
F0.6998766215098731
aF0.1463611206114721
aF4.808179473142277
aa(lp48
F0.7027295867686221
aF0.7517456080012197
aF3.7830589285763545
aa(lp49
F0.7031617556599983
aF0.7517456080012197
aF3.779784433966253
aa(lp50
F0.714069592522784
aF0.08152023062372293
aF4.862461924858582
aa(lp51
F0.714069592522784
aF0.08543842314912192
aF4.85359311921203
aa(lp52
F0.7150715946677031
aF0.8135157312184563
aF3.35798535388613
aa(lp53
F0.7159881952683691
aF0.812026117113135
aF3.3571151568060755
aa(lp54
F0.7162469340647832
aF0.8158878667421545
aF3.342135415687722
aa(lp55
F0.7167732844410659
aF0.09068050631162927
aF4.821769095234753
aa(lp56
F0.7201246187919903
aF0.7287242470161639
aF3.8039600550601653
aa(lp57
F0.7232095803786561
aF0.8135157312184563
aF3.302454151770818
aa(lp58
F0.7355039832344447
aF0.7912795183446981
aF3.3044602788209922
aa(lp59
F0.7364726815603129
aF0.7912795183446981
aF3.297563326969385
aa(lp60
F0.7367330324674422
aF0.796550140149678
aF3.283950011999925
aa(lp61
F0.7368075457892374
aF0.7791579627526162
aF3.3579544856263737
aa(lp62
F0.7368075457892374
aF0.7912795183446981
aF3.295185939595196
aa(lp63
F0.7370734000174416
aF0.7208372500145042
aF3.7369118646434183
aa(lp64
F0.7391094623261152
aF0.6779502473579697
aF4.100065258700523
aa(lp65
F0.7397904661709227
aF0.7819851550721837
aF3.320738349189336
aa(lp66
F0.7398646859026629
aF0.6659735209777388
aF4.162672666036824
aa(lp67
F0.7416039693274359
aF0.6731589306100609
aF4.107164463715912
aa(lp68
F0.7416265115056828
aF0.7091769619438335
aF3.8090436235604277
aa(lp69
F0.7426892343216317
aF0.6643596631893736
aF4.126945941175273
aa(lp70
F0.7435803291167429
aF0.6643596631893736
aF4.120777576178347
aa(lp71
F0.7464266136812442
aF0.7819851550721837
aF3.274803969829529
aa(lp72
F0.7464661176166713
aF0.7819851550721837
aF3.2745222825802593
aa(lp73
F0.7464843608573501
aF0.7819851550721837
aF3.2744100709534503
aa(lp74
F0.7465590675882103
aF0.7819370832713006
aF3.27425357310149
aa(lp75
F0.7477696801714638
aF0.7819851550721837
aF3.265666368447388
aa(lp76
F0.7485829492126261
aF0.7819851550721837
aF3.2601677591370763
aa(lp77
F0.748601192453305
aF0.7819851550721837
aF3.2600445756598493
aa(lp78
F0.7486406963887321
aF0.7819851550721837
aF3.259777871532086
aa(lp79
F0.7486754121850452
aF0.6659735209777388
aF4.101998575068802
aa(lp80
F0.7495384116407471
aF0.7039952617421299
aF3.782003630763774
aa(lp81
F0.7553975002702743
aF0.7039952617421299
aF3.745410858096591
aa(lp82
F0.7638808050271879
aF0.6393529855309467
aF4.165749559590871
aa(lp83
F0.7684795844223511
aF0.15959051328339224
aF4.2933281202070575
aa(lp84
F0.7704394953804019
aF0.6416811274746276
aF4.142978946145512
aa(lp85
F0.7764223854207204
aF0.6867048210334203
aF3.778937744345203
aa(lp86
F0.7764223854207204
aF0.6883496378333441
aF3.766518995924188
aa(lp87
F0.783974933464096
aF0.6836820954531454
aF3.7395304578033057
aa(lp88
F0.7859332976679501
aF0.8236088691784129
aF2.8690094635964964
aa(lp89
F0.7870348127583238
aF0.8236088691784129
aF2.863422945372466
aa(lp90
F0.7951438150050176
aF0.22747068663776127
aF4.0540348662535415
aa(lp91
F0.7980285215953684
aF0.8005135592922049
aF2.887183557868538
aa(lp92
F0.8059688513456494
aF0.19210633993249862
aF4.042787397902027
aa(lp93
F0.8068279935440453
aF0.8142455721562655
aF2.82455448058244
aa(lp94
F0.8090537117984081
aF0.21701549575672835
aF4.0221048746178205
aa(lp95
F0.8094452006622446
aF0.21701549575672835
aF4.020659993303905
aa(lp96
F0.8103362954573557
aF0.21701549575672835
aF4.017408884125344
aa(lp97
F0.8139272120228259
aF0.21383489554826046
aF4.008455495706039
aa(lp98
F0.813986613609163
aF0.8005135592922049
aF2.8273805758414747
aa(lp99
F0.8140367970962399
aF0.18797985303660525
aF4.038192782842134
aa(lp100
F0.8142353650276177
aF0.18820870618916116
aF4.037153041269373
aa(lp101
F0.8144223578588285
aF0.17509578433283335
aF4.060071896132891
aa(lp102
F0.8144223578588285
aF0.17653770185224427
aF4.0576398591993525
aa(lp103
F0.8144223578588285
aF0.19689356092346655
aF4.024100540988239
aa(lp104
F0.8144223578588285
aF0.7893335437584399
aF2.8981871131770482
aa(lp105
F0.8146834944950541
aF0.22006924130224514
aF3.9962325011882127
aa(lp106
F0.8149609713201292
aF0.8063283594993613
aF2.8221573855092688
aa(lp107
F0.8177266709162054
aF0.796550140149678
aF2.845972532741482
aa(lp108
F0.8190107425189115
aF0.22344458506427844
aF3.955858042213018
aa(lp109
F0.820557049759202
aF0.20500478710619213
aF3.9814176700503516
aa(lp110
F0.820557049759202
aF0.21331771918043702
aF3.972944878500021
aa(lp111
F0.8242790578343964
aF0.21701549575672835
aF3.972933372824053
aa(lp112
F0.8250016690737924
aF0.185063317777395
aF3.999729830815083
aa(lp113
F0.8261735351991704
aF0.18699440945648532
aF3.984703482890972
aa(lp114
F0.827321070244355
aF0.7964402036475249
aF2.8026598089066654
aa(lp115
F0.8282633359616213
aF0.7768422684370748
aF2.9120594426379944
aa(lp116
F0.8299832674614526
aF0.20854741609344507
aF3.9532490473213704
aa(lp117
F0.8299832674614526
aF0.7768422684370748
aF2.908087852412775
aa(lp118
F0.8299855469924764
aF0.7949443363715486
aF2.8156912778725967
aa(lp119
F0.8343760988184113
aF0.19629482886132305
aF3.9658621916839367
aa(lp120
F0.8444611637789656
aF0.790188077303516
aF2.820395491471848
aa(lp121
F0.848890814638502
aF0.7769138797111538
aF2.8715253418783186
aa(lp122
F0.848890814638502
aF0.7870294039904554
aF2.816563301471606
aa(lp123
F0.8504091334370776
aF0.7769138797111538
aF2.870451343885088
aa(lp124
F0.852129064936909
aF0.7769138797111538
aF2.869357532561167
aa.