(lp0
ccopy_reg
_reconstructor
p1
(cdeap.creator
Individual
p2
c__builtin__
list
p3
(lp4
(lp5
I7
aI8
aI1
aI19
aI15
aI1
aI12
aI9
aI1
aI14
aI2
aI1
aI4
aI15
aI1
aI9
aI13
aI1
aI11
aI6
aI1
aI-1000
aI-1000
aI-1000
aI-1000
aI-1000
aI-1000
aI-1000
aI-1000
aI-1000
aI-1000
aI-1000
aI-1000
aI-1000
aI-1000
aI-1000
aatp6
Rp7
(dp8
S'fitness'
p9
g1
(cdeap.creator
FitnessMin
p10
c__builtin__
object
p11
Ntp12
Rp13
(dp14
S'wvalues'
p15
(cnumpy.core.multiarray
scalar
p16
(cnumpy
dtype
p17
(S'f8'
p18
I0
I1
tp19
Rp20
(I3
S'<'
p21
NNNI-1
I-1
I0
tp22
bS'\xe6\xea\\a\xe7\x96V\xc0'
p23
tp24
Rp25
F35.0
tp26
sbsbag1
(g2
g3
(lp27
(lp28
I5
aI8
aI1
aI19
aI15
aI2
aI12
aI9
aI1
aI14
aI2
aI1
aI4
aI15
aI1
aI9
aI13
aI1
aI11
aI6
aI0
aI19
aI12
aI0
aI-1000
aI-1000
aI-1000
aI-1000
aI-1000
aI-1000
aI-1000
aI-1000
aI-1000
aI-1000
aI-1000
aI-1000
aatp29
Rp30
(dp31
g9
g1
(g10
g11
Ntp32
Rp33
(dp34
g15
(g16
(g20
S'\xac*\x02\xef\xcb\nW\xc0'
p35
tp36
Rp37
F46.0
tp38
sbsbag1
(g2
g3
(lp39
(lp40
I5
aI9
aI1
aI18
aI16
aI1
aI12
aI12
aI1
aI15
aI1
aI2
aI3
aI18
aI1
aI7
aI14
aI1
aI10
aI16
aI1
aI10
aI5
aI0
aI-1000
aI-1000
aI-1000
aI-1000
aI-1000
aI-1000
aI-1000
aI-1000
aI-1000
aI-1000
aI-1000
aI-1000
aatp41
Rp42
(dp43
g9
g1
(g10
g11
Ntp44
Rp45
(dp46
g15
(g16
(g20
S'\xf2\xd9\xc4n?\x97X\xc0'
p47
tp48
Rp49
F58.0
tp50
sbsbag1
(g2
g3
(lp51
(lp52
I9
aI7
aI1
aI19
aI15
aI3
aI15
aI12
aI1
aI14
aI3
aI1
aI3
aI18
aI2
aI8
aI14
aI1
aI10
aI6
aI0
aI13
aI16
aI0
aI18
aI18
aI1
aI-1000
aI-1000
aI-1000
aI-1000
aI-1000
aI-1000
aI-1000
aI-1000
aI-1000
aatp53
Rp54
(dp55
g9
g1
(g10
g11
Ntp56
Rp57
(dp58
g15
(g16
(g20
S'\xb0\xfa\x9d\xf5.5[\xc0'
p59
tp60
Rp61
F81.0
tp62
sbsbag1
(g2
g3
(lp63
(lp64
I4
aI8
aI3
aI18
aI16
aI1
aI14
aI11
aI2
aI15
aI2
aI3
aI3
aI16
aI1
aI8
aI14
aI2
aI14
aI16
aI0
aI15
aI13
aI1
aI16
aI2
aI1
aI-1000
aI-1000
aI-1000
aI-1000
aI-1000
aI-1000
aI-1000
aI-1000
aI-1000
aatp65
Rp66
(dp67
g9
g1
(g10
g11
Ntp68
Rp69
(dp70
g15
(g16
(g20
S'1.\x0b\x8aN\xee\\\xc0'
p71
tp72
Rp73
F93.0
tp74
sbsbag1
(g2
g3
(lp75
(lp76
I7
aI3
aI2
aI18
aI16
aI3
aI14
aI11
aI3
aI13
aI1
aI2
aI2
aI15
aI2
aI8
aI14
aI1
aI9
aI15
aI1
aI16
aI3
aI1
aI11
aI8
aI1
aI-1000
aI-1000
aI-1000
aI-1000
aI-1000
aI-1000
aI-1000
aI-1000
aI-1000
aatp77
Rp78
(dp79
g9
g1
(g10
g11
Ntp80
Rp81
(dp82
g15
(g16
(g20
S'\x1c\xb2\x04\xcc\x9c\n`\xc0'
p83
tp84
Rp85
F105.0
tp86
sbsbag1
(g2
g3
(lp87
(lp88
I8
aI6
aI2
aI18
aI15
aI1
aI16
aI12
aI2
aI13
aI1
aI3
aI4
aI15
aI4
aI8
aI13
aI1
aI10
aI18
aI0
aI17
aI14
aI1
aI11
aI11
aI0
aI6
aI13
aI1
aI-1000
aI-1000
aI-1000
aI-1000
aI-1000
aI-1000
aatp89
Rp90
(dp91
g9
g1
(g10
g11
Ntp92
Rp93
(dp94
g15
(g16
(g20
S'-\x1b\xd1+wg`\xc0'
p95
tp96
Rp97
F116.0
tp98
sbsbag1
(g2
g3
(lp99
(lp100
I8
aI8
aI2
aI4
aI15
aI4
aI16
aI10
aI2
aI13
aI3
aI2
aI19
aI16
aI3
aI8
aI14
aI1
aI1
aI17
aI0
aI17
aI8
aI1
aI12
aI3
aI1
aI3
aI14
aI1
aI-1000
aI-1000
aI-1000
aI-1000
aI-1000
aI-1000
aatp101
Rp102
(dp103
g9
g1
(g10
g11
Ntp104
Rp105
(dp106
g15
(g16
(g20
S'!*\x0bX\xe3\xed`\xc0'
p107
tp108
Rp109
F128.0
tp110
sbsbag1
(g2
g3
(lp111
(lp112
I6
aI3
aI5
aI18
aI15
aI3
aI13
aI9
aI1
aI13
aI1
aI4
aI5
aI18
aI2
aI8
aI13
aI4
aI12
aI5
aI0
aI0
aI13
aI1
aI18
aI14
aI1
aI10
aI1
aI0
aI12
aI18
aI0
aI-1000
aI-1000
aI-1000
aatp113
Rp114
(dp115
g9
g1
(g10
g11
Ntp116
Rp117
(dp118
g15
(g16
(g20
S'\xf0\x89\xdcu|Pb\xc0'
p119
tp120
Rp121
F139.0
tp122
sbsbag1
(g2
g3
(lp123
(lp124
I4
aI6
aI5
aI19
aI15
aI4
aI15
aI8
aI2
aI14
aI3
aI1
aI4
aI16
aI3
aI8
aI14
aI1
aI10
aI3
aI1
aI4
aI19
aI1
aI2
aI14
aI1
aI15
aI17
aI0
aI1
aI6
aI0
aI-1000
aI-1000
aI-1000
aatp125
Rp126
(dp127
g9
g1
(g10
g11
Ntp128
Rp129
(dp130
g15
(g16
(g20
S'\xd5\x8am+1\x81b\xc0'
p131
tp132
Rp133
F151.0
tp134
sbsbag1
(g2
g3
(lp135
(lp136
I5
aI7
aI5
aI5
aI16
aI1
aI12
aI12
aI4
aI15
aI3
aI2
aI18
aI16
aI3
aI9
aI14
aI1
aI16
aI17
aI1
aI19
aI5
aI1
aI6
aI17
aI0
aI17
aI16
aI1
aI3
aI12
aI1
aI-1000
aI-1000
aI-1000
aatp137
Rp138
(dp139
g9
g1
(g10
g11
Ntp140
Rp141
(dp142
g15
(g16
(g20
S"\x87\x12\xb6'\xd2\xbec\xc0"
p143
tp144
Rp145
F163.0
tp146
sbsbag1
(g2
g3
(lp147
(lp148
I7
aI9
aI1
aI19
aI15
aI3
aI14
aI11
aI4
aI14
aI3
aI6
aI4
aI16
aI2
aI7
aI13
aI5
aI11
aI9
aI1
aI6
aI17
aI1
aI15
aI6
aI0
aI13
aI0
aI1
aI10
aI11
aI1
aI19
aI10
aI0
aatp149
Rp150
(dp151
g9
g1
(g10
g11
Ntp152
Rp153
(dp154
g15
(g16
(g20
S'Z5\xec;\xd2jd\xc0'
p155
tp156
Rp157
F186.0
tp158
sbsbag1
(g2
g3
(lp159
(lp160
I4
aI4
aI1
aI18
aI16
aI4
aI15
aI9
aI6
aI15
aI3
aI5
aI3
aI18
aI3
aI9
aI12
aI2
aI17
aI5
aI1
aI9
aI1
aI1
aI1
aI12
aI1
aI2
aI7
aI0
aI12
aI3
aI1
aI15
aI16
aI1
aatp161
Rp162
(dp163
g9
g1
(g10
g11
Ntp164
Rp165
(dp166
g15
(g16
(g20
S'8\xdb\xb5\x7f\x0eWg\xc0'
p167
tp168
Rp169
F198.0
tp170
sbsba.