ccopy_reg
_reconstructor
p0
(cdeap.tools.support
ParetoFront
p1
c__builtin__
object
p2
Ntp3
Rp4
(dp5
S'keys'
p6
(lp7
g0
(cdeap.creator
FitnessMin
p8
g2
Ntp9
Rp10
(dp11
S'wvalues'
p12
(cnumpy.core.multiarray
scalar
p13
(cnumpy
dtype
p14
(S'f8'
p15
I0
I1
tp16
Rp17
(I3
S'<'
p18
NNNI-1
I-1
I0
tp19
bS'8\xdb\xb5\x7f\x0eWg\xc0'
p20
tp21
Rp22
F198.0
tp23
sbag0
(g8
g2
Ntp24
Rp25
(dp26
g12
(g13
(g17
S'Z5\xec;\xd2jd\xc0'
p27
tp28
Rp29
F186.0
tp30
sbag0
(g8
g2
Ntp31
Rp32
(dp33
g12
(g13
(g17
S"\x87\x12\xb6'\xd2\xbec\xc0"
p34
tp35
Rp36
F163.0
tp37
sbag0
(g8
g2
Ntp38
Rp39
(dp40
g12
(g13
(g17
S'\xd5\x8am+1\x81b\xc0'
p41
tp42
Rp43
F151.0
tp44
sbag0
(g8
g2
Ntp45
Rp46
(dp47
g12
(g13
(g17
S'\xf0\x89\xdcu|Pb\xc0'
p48
tp49
Rp50
F139.0
tp51
sbag0
(g8
g2
Ntp52
Rp53
(dp54
g12
(g13
(g17
S'!*\x0bX\xe3\xed`\xc0'
p55
tp56
Rp57
F128.0
tp58
sbag0
(g8
g2
Ntp59
Rp60
(dp61
g12
(g13
(g17
S'-\x1b\xd1+wg`\xc0'
p62
tp63
Rp64
F116.0
tp65
sbag0
(g8
g2
Ntp66
Rp67
(dp68
g12
(g13
(g17
S'\x1c\xb2\x04\xcc\x9c\n`\xc0'
p69
tp70
Rp71
F105.0
tp72
sbag0
(g8
g2
Ntp73
Rp74
(dp75
g12
(g13
(g17
S'1.\x0b\x8aN\xee\\\xc0'
p76
tp77
Rp78
F93.0
tp79
sbag0
(g8
g2
Ntp80
Rp81
(dp82
g12
(g13
(g17
S'\xb0\xfa\x9d\xf5.5[\xc0'
p83
tp84
Rp85
F81.0
tp86
sbag0
(g8
g2
Ntp87
Rp88
(dp89
g12
(g13
(g17
S'\xf2\xd9\xc4n?\x97X\xc0'
p90
tp91
Rp92
F58.0
tp93
sbag0
(g8
g2
Ntp94
Rp95
(dp96
g12
(g13
(g17
S'\xac*\x02\xef\xcb\nW\xc0'
p97
tp98
Rp99
F46.0
tp100
sbag0
(g8
g2
Ntp101
Rp102
(dp103
g12
(g13
(g17
S'\xe6\xea\\a\xe7\x96V\xc0'
p104
tp105
Rp106
F35.0
tp107
sbasS'items'
p108
(lp109
g0
(cdeap.creator
Individual
p110
c__builtin__
list
p111
(lp112
(lp113
I7
aI8
aI1
aI19
aI15
aI1
aI12
aI9
aI1
aI14
aI2
aI1
aI4
aI15
aI1
aI9
aI13
aI1
aI11
aI6
aI1
aI-1000
aI-1000
aI-1000
aI-1000
aI-1000
aI-1000
aI-1000
aI-1000
aI-1000
aI-1000
aI-1000
aI-1000
aI-1000
aI-1000
aI-1000
aatp114
Rp115
(dp116
S'fitness'
p117
g102
sbag0
(g110
g111
(lp118
(lp119
I5
aI8
aI1
aI19
aI15
aI2
aI12
aI9
aI1
aI14
aI2
aI1
aI4
aI15
aI1
aI9
aI13
aI1
aI11
aI6
aI0
aI19
aI12
aI0
aI-1000
aI-1000
aI-1000
aI-1000
aI-1000
aI-1000
aI-1000
aI-1000
aI-1000
aI-1000
aI-1000
aI-1000
aatp120
Rp121
(dp122
g117
g95
sbag0
(g110
g111
(lp123
(lp124
I5
aI9
aI1
aI18
aI16
aI1
aI12
aI12
aI1
aI15
aI1
aI2
aI3
aI18
aI1
aI7
aI14
aI1
aI10
aI16
aI1
aI10
aI5
aI0
aI-1000
aI-1000
aI-1000
aI-1000
aI-1000
aI-1000
aI-1000
aI-1000
aI-1000
aI-1000
aI-1000
aI-1000
aatp125
Rp126
(dp127
g117
g88
sbag0
(g110
g111
(lp128
(lp129
I9
aI7
aI1
aI19
aI15
aI3
aI15
aI12
aI1
aI14
aI3
aI1
aI3
aI18
aI2
aI8
aI14
aI1
aI10
aI6
aI0
aI13
aI16
aI0
aI18
aI18
aI1
aI-1000
aI-1000
aI-1000
aI-1000
aI-1000
aI-1000
aI-1000
aI-1000
aI-1000
aatp130
Rp131
(dp132
g117
g81
sbag0
(g110
g111
(lp133
(lp134
I4
aI8
aI3
aI18
aI16
aI1
aI14
aI11
aI2
aI15
aI2
aI3
aI3
aI16
aI1
aI8
aI14
aI2
aI14
aI16
aI0
aI15
aI13
aI1
aI16
aI2
aI1
aI-1000
aI-1000
aI-1000
aI-1000
aI-1000
aI-1000
aI-1000
aI-1000
aI-1000
aatp135
Rp136
(dp137
g117
g74
sbag0
(g110
g111
(lp138
(lp139
I7
aI3
aI2
aI18
aI16
aI3
aI14
aI11
aI3
aI13
aI1
aI2
aI2
aI15
aI2
aI8
aI14
aI1
aI9
aI15
aI1
aI16
aI3
aI1
aI11
aI8
aI1
aI-1000
aI-1000
aI-1000
aI-1000
aI-1000
aI-1000
aI-1000
aI-1000
aI-1000
aatp140
Rp141
(dp142
g117
g67
sbag0
(g110
g111
(lp143
(lp144
I8
aI6
aI2
aI18
aI15
aI1
aI16
aI12
aI2
aI13
aI1
aI3
aI4
aI15
aI4
aI8
aI13
aI1
aI10
aI18
aI0
aI17
aI14
aI1
aI11
aI11
aI0
aI6
aI13
aI1
aI-1000
aI-1000
aI-1000
aI-1000
aI-1000
aI-1000
aatp145
Rp146
(dp147
g117
g60
sbag0
(g110
g111
(lp148
(lp149
I8
aI8
aI2
aI4
aI15
aI4
aI16
aI10
aI2
aI13
aI3
aI2
aI19
aI16
aI3
aI8
aI14
aI1
aI1
aI17
aI0
aI17
aI8
aI1
aI12
aI3
aI1
aI3
aI14
aI1
aI-1000
aI-1000
aI-1000
aI-1000
aI-1000
aI-1000
aatp150
Rp151
(dp152
g117
g53
sbag0
(g110
g111
(lp153
(lp154
I6
aI3
aI5
aI18
aI15
aI3
aI13
aI9
aI1
aI13
aI1
aI4
aI5
aI18
aI2
aI8
aI13
aI4
aI12
aI5
aI0
aI0
aI13
aI1
aI18
aI14
aI1
aI10
aI1
aI0
aI12
aI18
aI0
aI-1000
aI-1000
aI-1000
aatp155
Rp156
(dp157
g117
g46
sbag0
(g110
g111
(lp158
(lp159
I4
aI6
aI5
aI19
aI15
aI4
aI15
aI8
aI2
aI14
aI3
aI1
aI4
aI16
aI3
aI8
aI14
aI1
aI10
aI3
aI1
aI4
aI19
aI1
aI2
aI14
aI1
aI15
aI17
aI0
aI1
aI6
aI0
aI-1000
aI-1000
aI-1000
aatp160
Rp161
(dp162
g117
g39
sbag0
(g110
g111
(lp163
(lp164
I5
aI7
aI5
aI5
aI16
aI1
aI12
aI12
aI4
aI15
aI3
aI2
aI18
aI16
aI3
aI9
aI14
aI1
aI16
aI17
aI1
aI19
aI5
aI1
aI6
aI17
aI0
aI17
aI16
aI1
aI3
aI12
aI1
aI-1000
aI-1000
aI-1000
aatp165
Rp166
(dp167
g117
g32
sbag0
(g110
g111
(lp168
(lp169
I7
aI9
aI1
aI19
aI15
aI3
aI14
aI11
aI4
aI14
aI3
aI6
aI4
aI16
aI2
aI7
aI13
aI5
aI11
aI9
aI1
aI6
aI17
aI1
aI15
aI6
aI0
aI13
aI0
aI1
aI10
aI11
aI1
aI19
aI10
aI0
aatp170
Rp171
(dp172
g117
g25
sbag0
(g110
g111
(lp173
(lp174
I4
aI4
aI1
aI18
aI16
aI4
aI15
aI9
aI6
aI15
aI3
aI5
aI3
aI18
aI3
aI9
aI12
aI2
aI17
aI5
aI1
aI9
aI1
aI1
aI1
aI12
aI1
aI2
aI7
aI0
aI12
aI3
aI1
aI15
aI16
aI1
aatp175
Rp176
(dp177
g117
g10
sbasS'maxsize'
p178
NsS'similar'
p179
coperator
eq
p180
sb.