(lp0
F0.0007355666909361694
aF0.006587095634252978
aF0.000872916040863092
aF0.0008785905408437017
aF0.00047887640418671495
aF0.0031443262044545672
aF8.971602232404896e-05
aF0.0028011641708257304
aF0.00018913250186956831
aF0.0005995417381781665
aF0.002123991680954465
aF0.0006298605830141468
aF0.0008260523939712383
aF0.000496615796976102
aF0.0017197167027948185
aF0.0002799589618441706
aF0.00024174509162064317
aF0.0005365602752087917
aF0.0013429264888206657
aF0.0010723961923583408
a.