(lp0
F0.0012435799089710597
aF0.00048752779691667303
aF0.0017088316520026403
aF8.42630228091723e-05
aF0.00011653760135427182
aF0.0006749671599143303
aF0.00011691872603616926
aF0.0023537160140431473
aF0.00048213617222063465
aF0.0006742485066838777
aF0.000536150747702302
aF0.00013541325834467988
aF0.00041091316705878234
aF0.00166495306391104
aF0.0015339300456460314
aF0.0001157822410352144
aF0.00046311857094854386
aF0.00017617661520832884
aF0.0008624501426906656
aF0.0024217372502962353
a.