(lp0
F0.560288994811597
aF0.5665648323372865
aF0.5703551191932379
aF0.5649054334334599
aF0.5557311915670444
aF0.5532694279448261
aF0.5630370958636318
aF0.5486784875445815
aF0.571082354110176
aF0.5416547139223661
aF0.552599285455421
aF0.5648658410807667
aF0.5594542004437519
aF0.5531646463335331
aF0.5625545661220194
a.