(lp0
F0.8851484853705947
aF0.8784885813491751
aF0.871458369408107
aF0.8799338041870978
aF0.8854895964045795
aF0.8778837626774778
aF0.8825348394201362
aF0.8804696710280182
aF0.8820924729970335
aF0.8837121548393756
aF0.881745153000518
aF0.8862261902598012
aF0.881886876200881
aF0.8919922514405049
aF0.8776356279729263
aF0.8802012155361574
aF0.8807439941948699
aF0.8885473192265618
aF0.8745202934422067
aF0.8796330023831928
a.