(lp0
F0.8680615121946623
aF0.8683272428544295
aF0.9107647730153084
aF0.9550572444468075
aF0.9551260851098149
aF0.9111787680006368
aF0.911176236610669
aF0.9106092544050365
aF0.9550617885005441
aF0.8466038639519042
aF0.9553795927833859
aF0.9550605413880539
aF0.9111775061616421
aF0.9552628002289214
aF0.9550619706335526
aF0.7857180322245507
aF0.7067855628885649
aF0.000410687147732798
aF5.3079321555635354e-05
aF0.3534280772187888
aF0.000123419092004475
aF0.3533772234819321
a.