(lp0
F0.9497871784653072
aF0.9583570274882459
aF0.9367906274959232
aF0.9477307614228515
aF0.9363729273538445
aF0.9521651041801027
aF0.9421360169990803
aF0.940972008632122
aF0.9421824359242711
aF0.9431677143471734
aF0.9399435151361613
aF0.9400692732401733
aF0.9603513464726516
aF0.9456729663722097
aF0.9406847742834001
aF0.9385741381454866
aF0.937199621967862
aF0.9409432709597787
aF0.9364154072383056
aF0.9358577037828396
aF0.9546392209399329
aF0.9432161431058926
aF0.9442360226003765
aF0.9466081456514471
aF0.9413412538300653
aF0.9495867903703219
aF0.9424891699953332
aF0.9647702407878851
aF0.9374169960200377
aF0.9408171311936279
a.