(lp0
F0.02497427055529872
aF0.010959333493464363
aF0.036749146201148095
aF0.01821525393847086
aF0.00899232898075972
aF0.02512164805393207
aF0.014243038028713042
aF0.00957249470989145
aF0.01638915319166148
aF0.01768155740947125
aF0.015121003637108289
aF0.04532669709981215
aF0.01037475847090458
aF0.016111587807934463
aF0.008590700874172607
aF0.012045230308648992
aF0.007662004644105038
aF0.012313198346293746
aF0.03245500969553019
aF0.01112062968602738
a.