(lp0
F0.9444157576313714
aF0.9333848772239678
aF0.9357697812079163
aF0.9356755870443356
aF0.9200899626433419
aF0.9177353062563213
aF0.9173972225808781
aF0.9370752126854431
aF0.9473885628440223
aF0.9378398712239387
aF0.9195039126474434
aF0.9316770252973133
aF0.907755004049566
aF0.9356506341636361
aF0.9414922711676528
aF0.9385636828323837
aF0.937273930201663
aF0.9225001407855525
aF0.9366629119966718
aF0.9365219573113212
a.