(lp0
F0.002784504206887352
aF0.2507935008967499
aF0.1356363863088383
aF0.061536971425571754
aF0.005121594190085042
aF0.010241866671918017
aF0.000953158426312441
aF0.13620630241347625
aF0.0011255542723985958
aF0.19427029221993763
aF0.13363649871367772
aF0.14809610068772816
aF0.00611488095899951
aF0.02219909453266612
aF0.13702365089530144
aF0.004313184514932291
aF0.0068822224368939545
aF0.012357592920793092
aF0.030085086798540914
aF0.014065878381489805
a.