(lp0
(lp1
F0.999999999999447
aF1.0516709454573613e-06
aF5.695527453912931e-76
aa(lp2
F0.9999999999995389
aF9.602870869475466e-07
aF4.200237666756667e-34
aa(lp3
F0.9999999999995668
aF9.308561347858987e-07
aF1.460075715619994e-11
aa(lp4
F0.9999999999995713
aF9.259061792784428e-07
aF4.941778373210301e-77
aa(lp5
F0.9999999999995833
aF9.12886786544526e-07
aF7.2227175290811435e-31
aa(lp6
F0.99999999999959
aF9.055166876195426e-07
aF1.7079346925511303e-73
aa(lp7
F0.9999999999995912
aF9.042153161607466e-07
aF1.7079346925511303e-73
aa(lp8
F0.9999999999996797
aF8.003615005066445e-07
aF6.614987640790496e-29
aa(lp9
F0.9999999999996827
aF7.965711754482513e-07
aF1.415080020281398e-44
aa(lp10
F0.9999999999996904
aF7.868979617043509e-07
aF1.2031458150999458e-33
aa(lp11
F0.9999999999996991
aF7.75705924726588e-07
aF4.743588147958735e-70
aa(lp12
F0.9999999999997015
aF7.72639528146608e-07
aF1.7961697283009667e-67
aa(lp13
F0.9999999999997321
aF7.293582523197026e-07
aF6.17911597539867e-08
aa(lp14
F0.999999999999755
aF6.973677298378611e-07
aF6.17911597539867e-08
aa(lp15
F0.9999999999997551
aF6.999468987411479e-07
aF1.2255866592973382e-72
aa(lp16
F0.9999999999997568
aF6.973677298378623e-07
aF1.631025823308239e-08
aa(lp17
F0.9999999999997569
aF6.973677298378624e-07
aF2.1951610774062253e-91
aa(lp18
F0.9999999999997599
aF6.929548059762205e-07
aF1.1357852864566131e-70
aa(lp19
F0.999999999999767
aF6.826737086309098e-07
aF7.967569342889781e-73
aa(lp20
F0.9999999999997672
aF6.824454488214775e-07
aF1.5232938162297482e-126
aa(lp21
F0.999999999999768
aF6.812987471091879e-07
aF3.946391940205659e-191
aa(lp22
F0.9999999999997721
aF6.751035398419247e-07
aF2.8877289933094226e-73
aa(lp23
F0.9999999999997743
aF6.719093897840858e-07
aF5.35812309767143e-71
aa(lp24
F0.9999999999997744
aF6.7168469344512e-07
aF1.512474589709341e-120
aa(lp25
F0.9999999999997871
aF6.526623790666961e-07
aF2.275392444122103e-84
aa(lp26
F0.9999999999997872
aF6.523625876663967e-07
aF2.169094083199857e-70
aa(lp27
F0.9999999999997875
aF6.518576411518957e-07
aF4.9126367836230185e-211
aa(lp28
F0.9999999999997877
aF6.516284591439619e-07
aF4.2166974939969086e-234
aa(lp29
F0.9999999999997883
aF6.506599776742643e-07
aF2.6972096123086094e-85
aa(lp30
F0.9999999999997901
aF6.4793653513185e-07
aF7.967569342889781e-73
aa(lp31
F0.9999999999997936
aF6.425577475028787e-07
aF2.3559286547269588e-73
aa(lp32
F0.9999999999998018
aF6.294922280698497e-07
aF5.5284801991015275e-84
aa(lp33
F0.9999999999998026
aF6.283598734841104e-07
aF3.8287141202107026e-70
aa(lp34
F0.9999999999998047
aF6.250380617105889e-07
aF1.0401646584642534e-83
aa(lp35
F0.999999999999805
aF6.244191098720021e-07
aF1.5215845253724143e-71
aa(lp36
F0.9999999999998068
aF6.216546867684902e-07
aF3.8287141202107026e-70
aa(lp37
F0.9999999999998119
aF6.132748797067776e-07
aF3.1666544363085755e-73
aa(lp38
F0.9999999999998127
aF6.119869067466059e-07
aF4.8924315020459665e-34
aa(lp39
F0.9999999999998154
aF6.077308898254355e-07
aF2.2587320546118952e-69
aa(lp40
F0.9999999999998161
aF6.063592085166185e-07
aF2.9427487666462707e-180
aa(lp41
F0.9999999999998176
aF6.040229965362346e-07
aF6.299552182328361e-33
aa(lp42
F0.9999999999998183
aF6.029661613676531e-07
aF3.3857448881794417e-32
aa(lp43
F0.9999999999998189
aF6.018573226852635e-07
aF2.65943069624084e-30
aa(lp44
F0.999999999999819
aF6.015470702959509e-07
aF7.23469381354596e-233
aa(lp45
F0.9999999999998229
aF5.950505316874538e-07
aF5.850996525845437e-197
aa(lp46
F0.9999999999998233
aF5.945625457527245e-07
aF2.6903124287873153e-209
aa(lp47
F0.9999999999998234
aF5.944609857352964e-07
aF1.2308910620607752e-250
aa(lp48
F0.9999999999998236
aF5.940577229072151e-07
aF4.724859875129781e-171
aa(lp49
F0.9999999999998244
aF5.92593323307634e-07
aF4.9126367836230185e-211
aa(lp50
F0.9999999999998245
aF5.924682852734039e-07
aF1.2800287354055967e-217
aa(lp51
F0.9999999999998255
aF5.908948200767734e-07
aF2.6756299052862936e-30
aa(lp52
F0.9999999999998259
aF5.901400220800506e-07
aF7.743055962394872e-112
aa(lp53
F0.9999999999998263
aF5.894752493181143e-07
aF1.9774826236022508e-85
aa(lp54
F0.9999999999998264
aF5.892821676881527e-07
aF2.275392444122103e-84
aa(lp55
F0.9999999999998267
aF5.887680775942592e-07
aF1.6988239887224113e-31
aa(lp56
F0.9999999999998272
aF5.877822094621306e-07
aF2.642514383545619e-36
aa(lp57
F0.9999999999998274
aF5.87693187793851e-07
aF3.173651942543109e-90
aa(lp58
F0.9999999999998277
aF5.870556159599584e-07
aF1.2460983347036965e-85
aa(lp59
F0.9999999999998302
aF5.82645117704224e-07
aF3.014066186545036e-74
aa(lp60
F0.999999999999832
aF5.795411938453604e-07
aF7.373431738597967e-72
aa(lp61
F0.9999999999998321
aF5.793667084554548e-07
aF3.40647410461908e-74
aa(lp62
F0.9999999999998321
aF5.794890088031717e-07
aF3.014066186545036e-74
aa(lp63
F0.9999999999998326
aF5.786313112650742e-07
aF8.605732599767081e-92
aa(lp64
F0.999999999999833
aF5.778153811497553e-07
aF2.275392444122103e-84
aa(lp65
F0.999999999999833
aF5.778690366917603e-07
aF1.614722630540458e-90
aa(lp66
F0.9999999999998336
aF5.768004516163018e-07
aF1.824925943585644e-08
aa(lp67
F0.9999999999998337
aF5.768004516163019e-07
aF9.739649528070375e-11
aa(lp68
F0.9999999999998344
aF5.753598621049725e-07
aF1.824925943585644e-08
aa(lp69
F0.9999999999998355
aF5.735626704988001e-07
aF7.434405424598023e-113
aa(lp70
F0.9999999999998359
aF5.729214313850655e-07
aF6.517665703704767e-35
aa(lp71
F0.9999999999998361
aF5.724191222968185e-07
aF3.552489211530569e-34
aa(lp72
F0.9999999999998361
aF5.725326368681436e-07
aF8.272409606568821e-36
aa(lp73
F0.9999999999998361
aF5.72558611592635e-07
aF5.184703933700786e-106
aa(lp74
F0.9999999999998381
aF5.686921053619154e-07
aF1.2249928976970988e-08
aa(lp75
F0.9999999999998382
aF5.686921053619155e-07
aF6.39899515228343e-11
aa(lp76
F0.9999999999998388
aF5.677772976621073e-07
aF8.300155740870885e-89
aa(lp77
F0.9999999999998397
aF5.662737564474643e-07
aF4.397372983990978e-13
aa(lp78
F0.9999999999998403
aF5.651638535571513e-07
aF7.930603805627103e-113
aa(lp79
F0.999999999999841
aF5.638425150337881e-07
aF1.1519348753539794e-69
aa(lp80
F0.9999999999998413
aF5.632475537075478e-07
aF2.390441651793211e-165
aa(lp81
F0.9999999999998416
aF5.62972996261845e-07
aF3.2605645754798863e-240
aa(lp82
F0.9999999999998419
aF5.623539663235892e-07
aF2.6972096123086094e-85
aa(lp83
F0.9999999999998503
aF5.471884298535417e-07
aF1.7457721400147677e-31
aa(lp84
F0.9999999999998525
aF5.431470513898125e-07
aF3.6534656679873447e-37
aa(lp85
F0.999999999999854
aF5.404505056031556e-07
aF1.8033921671876298e-211
aa(lp86
F0.9999999999998543
aF5.397156416032109e-07
aF3.6449343279854043e-91
aa(lp87
F0.9999999999998571
aF5.346773985074516e-07
aF1.1357852864566131e-70
aa(lp88
F0.999999999999877
aF4.959684078065264e-07
aF3.775235681069348e-126
aa(lp89
F0.9999999999998774
aF4.950764275390759e-07
aF8.33267004938731e-34
aa(lp90
F0.9999999999998803
aF4.893609624584565e-07
aF1.7683509210235946e-30
aa(lp91
F0.9999999999998814
aF4.868797785614008e-07
aF5.873877852562083e-123
aa(lp92
F0.9999999999998826
aF4.845518054151958e-07
aF1.0641958518967994e-70
aa(lp93
F0.9999999999998855
aF4.783509981175059e-07
aF1.107919107658354e-109
aa(lp94
F0.9999999999998868
aF4.7580503629322604e-07
aF3.216703113612135e-32
aa(lp95
F0.9999999999998873
aF4.748132976232774e-07
aF1.7413846167917817e-37
aa(lp96
F0.9999999999998881
aF4.730415535104066e-07
aF3.870979448042429e-12
aa(lp97
F0.9999999999998882
aF4.7279907881593846e-07
aF9.11493233260459e-32
aa(lp98
F0.9999999999998884
aF4.7246676548969914e-07
aF3.870979448042429e-12
aa(lp99
F0.9999999999998892
aF4.707545557529953e-07
aF9.38920117082241e-33
aa(lp100
F0.9999999999999001
aF4.4705417252048943e-07
aF1.374608600855054e-34
aa(lp101
F0.9999999999999007
aF4.455152293625792e-07
aF1.4231092268537049e-269
aa(lp102
F0.9999999999999046
aF4.3682564025154193e-07
aF3.112884307321952e-113
aa(lp103
F0.9999999999999053
aF4.351279269751399e-07
aF4.5080398085169025e-278
aa(lp104
F0.9999999999999056
aF4.345349896939388e-07
aF4.072470926683894e-89
aa(lp105
F0.9999999999999062
aF4.332680645910945e-07
aF1.1682247576142748e-11
aa(lp106
F0.9999999999999067
aF4.318111076239153e-07
aF2.506333383844156e-84
aa(lp107
F0.999999999999908
aF4.289916778233799e-07
aF6.39899515228343e-11
aa(lp108
F0.9999999999999097
aF4.2492084149694073e-07
aF1.460075715619994e-11
aa(lp109
F0.9999999999999105
aF4.2305407159540886e-07
aF1.589661342904677e-181
aa(lp110
F0.9999999999999151
aF4.122038935348822e-07
aF2.2611851565052207e-11
aa(lp111
F0.9999999999999163
aF4.092053700006945e-07
aF9.11493233260459e-32
aa(lp112
F0.9999999999999354
aF3.5950027295399986e-07
aF2.8405734673569174e-24
aa(lp113
F0.9999999999999478
aF3.2316222524538207e-07
aF3.798289392267715e-89
aa(lp114
F0.9999999999999484
aF3.2148836534231063e-07
aF3.73056769823414e-90
aa(lp115
F0.9999999999999489
aF3.1963053165512734e-07
aF2.275392444122103e-84
aa(lp116
F0.9999999999999492
aF3.188119584735152e-07
aF2.642514383545619e-36
aa(lp117
F0.9999999999999531
aF3.062106469713115e-07
aF3.173651942543109e-90
aa(lp118
F0.999999999999954
aF3.0333776558805215e-07
aF2.188167786845758e-79
aa(lp119
F0.9999999999999554
aF2.98897925066293e-07
aF4.510093494529921e-33
aa(lp120
F0.9999999999999556
aF2.9814739401426173e-07
aF7.2227175290811435e-31
aa(lp121
F0.9999999999999557
aF2.977189193698391e-07
aF1.8658310881254088e-32
aa(lp122
F0.9999999999999566
aF2.9480038817831965e-07
aF5.022989720894732e-65
aa(lp123
F0.9999999999999571
aF2.9262968458195183e-07
aF1.063035945602575e-32
aa(lp124
F0.9999999999999571
aF2.9265621759776795e-07
aF8.468088626873449e-91
aa(lp125
F0.9999999999999576
aF2.9120647687938283e-07
aF2.7332038939510673e-85
aa(lp126
F0.9999999999999577
aF2.9074448183194223e-07
aF8.731702469736104e-27
aa(lp127
F0.9999999999999579
aF2.902254324619114e-07
aF5.445985209741442e-32
aa(lp128
F0.9999999999999586
aF2.877213097691446e-07
aF5.639984881945085e-32
aa(lp129
F0.999999999999963
aF2.7199095828350836e-07
aF1.9083719074494303e-31
aa(lp130
F0.9999999999999668
aF2.5784421843324e-07
aF6.614987640790496e-29
aa(lp131
F0.9999999999999677
aF2.542425046310377e-07
aF1.7506714218503844e-89
aa(lp132
F0.9999999999999687
aF2.502456033677693e-07
aF2.6756299052862936e-30
aa(lp133
F0.9999999999999688
aF2.4970012767727034e-07
aF2.850945953650239e-78
aa(lp134
F0.9999999999999699
aF2.4537393349901263e-07
aF3.014066186545036e-74
aa(lp135
F0.9999999999999712
aF2.3974324765145804e-07
aF8.34844808973422e-71
aa(lp136
F0.9999999999999714
aF2.394076845780033e-07
aF1.1357852864566131e-70
aa(lp137
F0.9999999999999719
aF2.3696790132482747e-07
aF1.706050076509009e-73
aa(lp138
F0.999999999999973
aF2.322395856701985e-07
aF3.8282166222656416e-294
aa(lp139
F0.9999999999999737
aF2.2942612283383845e-07
aF7.174003280166862e-99
aa(lp140
F0.9999999999999752
aF2.227294007341806e-07
aF1.1357852864566131e-70
aa(lp141
F0.999999999999976
aF2.1904957993937285e-07
aF8.827621323197122e-113
aa(lp142
F0.9999999999999761
aF2.1856476995982262e-07
aF7.967133846298226e-71
aa(lp143
F0.9999999999999764
aF2.1727126954521995e-07
aF8.52626072783033e-88
aa(lp144
F0.9999999999999765
aF2.1396642345314656e-07
aF3.767255432558726e-08
aa(lp145
F0.9999999999999766
aF2.163679227007633e-07
aF9.777323368751051e-225
aa(lp146
F0.9999999999999767
aF2.1600125733413587e-07
aF8.52626072783033e-88
aa(lp147
F0.9999999999999768
aF2.1469912946765526e-07
aF1.824925943585644e-08
aa(lp148
F0.9999999999999769
aF2.1470857003861874e-07
aF2.4117534814873523e-68
aa(lp149
F0.9999999999999769
aF2.1512053696984666e-07
aF1.3922643818038465e-69
aa(lp150
F0.999999999999977
aF2.1446086688535899e-07
aF8.94225987646246e-71
aa(lp151
F0.9999999999999771
aF2.1382434440280882e-07
aF1.1357852864566131e-70
aa(lp152
F0.9999999999999771
aF2.139664234531467e-07
aF3.3750596512800325e-74
aa(lp153
F0.9999999999999771
aF2.1408193494531966e-07
aF3.9662790493327883e-122
aa(lp154
F0.9999999999999772
aF2.1351047707383657e-07
aF1.643583252267459e-69
aa(lp155
F0.9999999999999774
aF2.125772560730628e-07
aF6.024807801586055e-98
aa(lp156
F0.9999999999999777
aF2.112716905038575e-07
aF1.1357852864566131e-70
aa(lp157
F0.9999999999999779
aF2.1014259915938482e-07
aF1.1357852864566131e-70
aa(lp158
F0.999999999999978
aF2.09476343241579e-07
aF2.188167786845758e-79
aa(lp159
F0.999999999999978
aF2.094904998327041e-07
aF1.6773782161400994e-83
aa(lp160
F0.9999999999999781
aF2.0894144933798727e-07
aF1.2062375497506914e-69
aa(lp161
F0.9999999999999781
aF2.0911595892062667e-07
aF1.1357852864566131e-70
aa(lp162
F0.9999999999999785
aF2.076667820795207e-07
aF4.17128956212003e-69
aa(lp163
F0.9999999999999791
aF2.0431049074101622e-07
aF9.085244796153813e-32
aa(lp164
F0.9999999999999792
aF2.0348761672416286e-07
aF1.1014224448212082e-08
aa(lp165
F0.9999999999999793
aF2.034341931845301e-07
aF1.3367946003366835e-30
aa(lp166
F0.9999999999999795
aF2.0066339550407016e-07
aF3.002663344673107e-08
aa(lp167
F0.9999999999999799
aF1.9989700980937435e-07
aF1.824925943585644e-08
aa.