(lp0
(lp1
F8.424147235038329e-08
aF0.015108913003065117
aF5.99117929685606
aa(lp2
F3.308314396762655e-06
aF0.019592973859300977
aF5.988329451362292
aa(lp3
F3.712432331576254e-06
aF0.001921172668075349
aF6.005635519672537
aa(lp4
F4.329386287979867e-06
aF0.011211967306490128
aF5.994789044400544
aa(lp5
F7.163652538876367e-06
aF0.00038046633018851204
aF6.007206194213049
aa(lp6
F1.5132746974243775e-05
aF0.016590255005081135
aF5.986979460493909
aa(lp7
F1.8294997618442145e-05
aF0.004915826570767789
aF6.002168434233048
aa(lp8
F1.8294997618442145e-05
aF0.004921577448910558
aF6.002162460584416
aa(lp9
F1.958065568849769e-05
aF0.0038996382418039674
aF6.002940537746166
aa(lp10
F2.081555813882984e-05
aF0.009898436762859331
aF5.994854422960559
aa(lp11
F2.081555813882984e-05
aF0.009996506655481886
aF5.993965627391073
aa(lp12
F2.763581084958347e-05
aF0.0034470023574722257
aF5.998881193590992
aa(lp13
F2.763581084958347e-05
aF0.003864342415206092
aF5.998871973325143
aa(lp14
F3.0689452112586725e-05
aF0.002253570637740998
aF6.000820634063572
aa(lp15
F3.3564521991592236e-05
aF0.010817222218236501
aF5.990336504373706
aa(lp16
F4.4789477139126164e-05
aF0.017104490114973253
aF5.986669189198036
aa(lp17
F5.116266994875359e-05
aF0.015108913003065117
aF5.988304549609395
aa(lp18
F5.8818787042744756e-05
aF0.0012471033978314477
aF6.002468157850605
aa(lp19
F5.93556471902611e-05
aF0.0107957856384044
aF5.991594041952525
aa(lp20
F6.752590265021383e-05
aF0.017040868515566427
aF5.985518818644
aa(lp21
F8.455355273303752e-05
aF0.0013298475959970316
aF5.999440310733631
aa(lp22
F0.00010664442883703482
aF0.00025538197066939106
aF6.004240342958631
aa(lp23
F0.00012613756879772953
aF0.0011091029779628295
aF6.003204880173335
aa(lp24
F0.00014693903342114737
aF0.011022418302404666
aF5.990003762369089
aa(lp25
F0.0001667589735994861
aF0.01072294868136879
aF5.9903828733305255
aa(lp26
F0.00027795538400964036
aF1.7284052953584557e-05
aF6.002195220057701
aa(lp27
F0.00027795538400964036
aF2.6592918123061822e-05
aF6.002185907343031
aa(lp28
F0.00027968910742846896
aF0.004203030487855683
aF5.99752668369396
aa(lp29
F0.00030645753250373945
aF0.007030631728343623
aF5.994291262472439
aa(lp30
F0.00033018800392100797
aF0.017040868515566427
aF5.9852551719908895
aa(lp31
F0.0003538876472102227
aF0.0010106894217642402
aF6.00152928459434
aa(lp32
F0.00037216668197203673
aF0.011519290225339509
aF5.98919873551108
aa(lp33
F0.00038730498914699846
aF0.009482695410071202
aF5.991966462678535
aa(lp34
F0.00040493690025710655
aF0.0012525892697615787
aF6.00028276203148
aa(lp35
F0.00045355045660825863
aF0.017021288344819828
aF5.984487386334114
aa(lp36
F0.0004593733052252486
aF0.01636235831279304
aF5.986810088817539
aa(lp37
F0.00048014566713219884
aF0.016689642794554226
aF5.981710622334756
aa(lp38
F0.0004810589677617361
aF0.0010595914861074836
aF6.000938078304168
aa(lp39
F0.0004945904987487433
aF0.009472576461338901
aF5.99322676554007
aa(lp40
F0.0004945904987487433
aF0.016590255005081135
aF5.984370160184239
aa(lp41
F0.0004976904796574321
aF0.003852759588934466
aF5.997909472666169
aa(lp42
F0.0005326829516800005
aF0.0012471338726088245
aF6.000466940282252
aa(lp43
F0.0006255814023697374
aF0.0004131792818166144
aF6.001369083111123
aa(lp44
F0.000644969109251835
aF0.0004184634323452887
aF6.001206349636179
aa(lp45
F0.000658250151211061
aF0.00023003299140083276
aF6.001829463123419
aa(lp46
F0.0006781030862550969
aF0.01038758217880958
aF5.990157205093234
aa(lp47
F0.0006797798851496378
aF0.004126119054656953
aF5.9974297964548375
aa(lp48
F0.0006989889008673133
aF0.002586250024989822
aF5.999330096026266
aa(lp49
F0.0007008079401146575
aF9.707639546405362e-05
aF6.000128444484157
aa(lp50
F0.0007016270165285253
aF1.3682080384150937e-05
aF6.001771239998599
aa(lp51
F0.0007016270165285253
aF2.6592918123061822e-05
aF6.0017286275339545
aa(lp52
F0.0007016270165285253
aF7.237009588797723e-05
aF6.0017125043857895
aa(lp53
F0.0007016270165285253
aF0.003531367554023439
aF5.998750680460809
aa(lp54
F0.0007016270165285253
aF0.009943170961923948
aF5.990537792937236
aa(lp55
F0.0007016270165285253
aF0.01016567687388819
aF5.990273243540059
aa(lp56
F0.0007016270165285253
aF0.010754540576170646
aF5.989825908083776
aa(lp57
F0.0007571287894425267
aF1.4148630609074793e-05
aF6.0017500795623615
aa(lp58
F0.0007764977198534391
aF1.336312908643356e-05
aF6.0012397760583625
aa(lp59
F0.0007852345994572487
aF0.01016563207170208
aF5.990106765987592
aa(lp60
F0.0009562556509872546
aF0.015481209688267543
aF5.9836736574391205
aa(lp61
F0.0010317487937110612
aF0.0012471033978314477
aF5.999792236385305
aa(lp62
F0.0014815168145654327
aF0.0012962099054065882
aF5.999626250082294
aa(lp63
F0.0014815168145654327
aF0.0033749231999644245
aF5.99707556111201
aa(lp64
F0.0014815168145654327
aF0.0034282767422737885
aF5.9970045206264135
aa(lp65
F0.0014883474225964176
aF0.011519290225339509
aF5.988008745598001
aa(lp66
F0.0014986679165602404
aF0.0034282767422737885
aF5.996895716965879
aa(lp67
F0.0014986679165602404
aF0.003520638088190314
aF5.996705136686013
aa(lp68
F0.0015043580773718482
aF0.00335850320492572
aF5.9974060114700745
aa(lp69
F0.001544804257019936
aF0.0033370667764068425
aF5.998412446986806
aa(lp70
F0.002227896468383346
aF0.01642922661620186
aF5.983359646940242
aa(lp71
F0.002227896468383346
aF0.01660359148950743
aF5.979782608589967
aa(lp72
F0.003399803264088388
aF0.004050775298047406
aF5.994143832607181
aa(lp73
F0.003678363987445919
aF0.003853597530311506
aF5.995317788080409
aa(lp74
F0.0038217022213298648
aF0.0012989479963465334
aF5.996579347373971
aa(lp75
F0.0046166673047755916
aF0.0067630701034512835
aF5.994106252427736
aa(lp76
F0.004648168890183906
aF0.0067544865119634236
aF5.994130720480292
aa(lp77
F0.004949534825309911
aF0.007142481549933261
aF5.989035661003331
aa(lp78
F0.004958812129140068
aF0.0067441230362436135
aF5.99089588115922
aa(lp79
F0.004968783769837722
aF0.003428354510095518
aF5.9964246245199835
aa(lp80
F0.004985029633044865
aF0.00683412247487393
aF5.9900630641976145
aa(lp81
F0.00498732220050614
aF0.00014740300878752924
aF5.998849918259328
aa(lp82
F0.005004903417022656
aF0.0009428006036947094
aF5.998268249038566
aa(lp83
F0.005004903417022656
aF0.0033194458260759493
aF5.993096052057262
aa(lp84
F0.005004903417022656
aF0.006802581022642806
aF5.98965101920739
aa(lp85
F0.005004903417022656
aF0.006982908642803322
aF5.989465288662998
aa(lp86
F0.005026722936841699
aF0.0068684540332863454
aF5.989549872112971
aa(lp87
F0.005104036090824931
aF0.006942200531377344
aF5.989084926022992
aa(lp88
F0.005111172198584217
aF0.012982022898029577
aF5.984390140728834
aa(lp89
F0.005185193629289885
aF0.0013590245832804
aF5.995449169073591
aa(lp90
F0.005200907544328035
aF0.0012782575704970074
aF5.9937985147900905
aa(lp91
F0.005242429719517987
aF0.010475912917839749
aF5.9880873912893255
aa(lp92
F0.0052573039514097735
aF8.06142301308958e-05
aF5.995626104273385
aa(lp93
F0.0052573039514097735
aF0.003836917288486445
aF5.992725601585931
aa(lp94
F0.005280233473366444
aF0.015273541226292927
aF5.983643266064245
aa(lp95
F0.005448733129363086
aF0.0009762105773004266
aF5.995386796547364
aa(lp96
F0.00545745047035121
aF0.004185064011535371
aF5.991516210384534
aa(lp97
F0.005532976680240601
aF0.004173981580772809
aF5.992524797441595
aa(lp98
F0.0055419475047394345
aF3.975800456616763e-05
aF6.000715613169995
aa(lp99
F0.006320163488823124
aF0.010195203382566392
aF5.986893558324123
aa(lp100
F0.006345993355713462
aF0.0012289565222661789
aF5.994949508068307
aa(lp101
F0.006409277439582143
aF0.0012289565222661789
aF5.994878625410494
aa(lp102
F0.006427629967271364
aF0.009806965963036268
aF5.984831933106108
aa(lp103
F0.006440324881184091
aF0.0035372486987379132
aF5.99247750626837
aa(lp104
F0.006457790690889175
aF0.0035247339479198645
aF5.991513657798147
aa(lp105
F0.006462712042671901
aF0.0032598514417177425
aF5.993765407838374
aa(lp106
F0.006462712042671901
aF0.016260996443621736
aF5.981335265418412
aa(lp107
F0.006493993801536386
aF0.0032124581585648154
aF5.993270774974973
aa(lp108
F0.006493993801536386
aF0.005352418356028246
aF5.988374960322689
aa(lp109
F0.0065346965303818925
aF0.003540205079048629
aF5.990100291327605
aa(lp110
F0.006753805768053521
aF0.010202595046319084
aF5.984720777779038
aa(lp111
F0.00678382504822829
aF0.0012524281934663518
aF5.993472961996972
aa(lp112
F0.006795323691397314
aF0.001226966995846262
aF5.993148360771322
aa(lp113
F0.0068757255726646024
aF0.010603384301028689
aF5.9841924950610235
aa(lp114
F0.006960987622732258
aF0.0008680573452640736
aF5.995067754491847
aa(lp115
F0.006960987622732258
aF0.0008737795910074425
aF5.995062248351681
aa(lp116
F0.00698419898186
aF0.015133359194215172
aF5.979547283797103
aa(lp117
F0.0071464827984869285
aF0.0007198293362029271
aF5.995391470952147
aa(lp118
F0.0072330723209547065
aF0.010475912917839749
aF5.98333512036229
aa(lp119
F0.007243481476536693
aF0.011519290225339509
aF5.981860226917981
aa(lp120
F0.007243481476536693
aF0.013372479015798404
aF5.9802011874801
aa(lp121
F0.007243481476536693
aF0.014120907400069986
aF5.978745197810557
aa(lp122
F0.00724575836835176
aF0.01041307176386574
aF5.983423237262203
aa(lp123
F0.00724575836835176
aF0.010475912917839749
aF5.983278247267662
aa(lp124
F0.007260632600243547
aF0.003853597530311506
aF5.988940897734691
aa(lp125
F0.007345092502265603
aF7.553931715705573e-05
aF5.995704843757914
aa(lp126
F0.007345092502265603
aF9.594711837721654e-05
aF5.995214557291478
aa(lp127
F0.007347344319216031
aF1.4033761472527034e-05
aF5.9992957455191895
aa(lp128
F0.007353549587244332
aF0.000651707892757854
aF5.994677975154376
aa(lp129
F0.008336943409064768
aF0.0011091029779628295
aF5.9945827640385385
aa(lp130
F0.008408635996055744
aF0.0004131792818166144
aF5.993634300670295
aa(lp131
F0.008408635996055744
aF0.0034557592024123175
aF5.990480796355946
aa(lp132
F0.010359830033919486
aF0.0006962115508792033
aF5.992493482823664
aa(lp133
F0.010428043408718503
aF0.0007198293362029271
aF5.99104009449994
aa(lp134
F0.010505628459787577
aF0.00048545908591766506
aF5.992413233194821
aa(lp135
F0.010518222729685802
aF0.0034282767422737885
aF5.988782528265386
aa(lp136
F0.011048223073802002
aF0.010512527544569338
aF5.982391839493361
aa(lp137
F0.011529407740417705
aF0.010194091616883982
aF5.981734616752624
aa(lp138
F0.011542874112868112
aF0.01113921901123258
aF5.981006570512668
aa(lp139
F0.011561096800668698
aF0.010791865668725352
aF5.980819187831928
aa(lp140
F0.011678361782420162
aF0.010194091616883982
aF5.981437928150497
aa(lp141
F0.01169493638687056
aF0.010194091616883982
aF5.9810074601561025
aa(lp142
F0.011699146492969036
aF0.010136455448371873
aF5.978926298282534
aa(lp143
F0.011785335409094473
aF0.00026245592289554566
aF5.9915754672859975
aa(lp144
F0.011793901789807697
aF0.00012276529936352284
aF5.991271553597834
aa(lp145
F0.01186239259309842
aF1.0990511379506125e-05
aF5.991428324612614
aa(lp146
F0.01186239259309842
aF2.0551638771277667e-05
aF5.9914050116019215
aa(lp147
F0.01186239259309842
aF3.3304975930350915e-05
aF5.991396404571101
aa(lp148
F0.01186239259309842
aF0.0003325964128740092
aF5.991101419436002
aa(lp149
F0.01186239259309842
aF0.0009736055707595031
aF5.989079186061916
aa(lp150
F0.011875078640495482
aF2.0551638771277667e-05
aF5.991398325154204
aa(lp151
F0.011875078640495482
aF0.00676722893361263
aF5.983742608235127
aa(lp152
F0.012022076349669111
aF0.002188699157260225
aF5.986836824705312
aa(lp153
F0.012612000454520668
aF3.045031631383261e-05
aF5.991058059804229
aa(lp154
F0.012612000454520668
aF0.0009665772355364789
aF5.990113136443719
aa(lp155
F0.012900714088072394
aF0.0012471033978314477
aF5.986764026180611
aa(lp156
F0.012936388173549616
aF0.0012289565222661789
aF5.9872080175710805
aa(lp157
F0.013009792266360586
aF0.004916064410964547
aF5.984549589002587
aa(lp158
F0.013196607030457077
aF0.003925332035682004
aF5.985593563827176
aa(lp159
F0.013231886611348807
aF9.14003110182417e-05
aF5.988658329869501
aa(lp160
F0.013266814027547716
aF0.00434323492392792
aF5.984274119140073
aa(lp161
F0.013352457655161066
aF0.0011684880489914744
aF5.98662726865302
aa(lp162
F0.013509806968800636
aF7.025678953390829e-05
aF5.990097901720364
aa(lp163
F0.013509806968800636
aF0.001110580758955889
aF5.985563296520752
aa(lp164
F0.013509806968800636
aF0.006969284490207718
aF5.980885963357912
aa(lp165
F0.013514636747785264
aF0.004916064410964547
aF5.984050470356738
aa(lp166
F0.013532953878595749
aF0.0011091029779628295
aF5.987352890954822
aa(lp167
F0.01358149955579162
aF0.0004131792818166144
aF5.988328326625693
aa(lp168
F0.013591965605455506
aF0.0004870129609775423
aF5.986612807945203
aa(lp169
F0.013591965605455506
aF0.0010504284580829107
aF5.986144623780554
aa(lp170
F0.013607244972250649
aF0.010427354052913644
aF5.978666369086356
aa(lp171
F0.013635296755452678
aF0.010512527544569338
aF5.9780769506815234
aa(lp172
F0.013750646682298789
aF0.0037206540607748807
aF5.9840950076634485
aa(lp173
F0.013750646682298789
aF0.0037238491992309187
aF5.983981549187793
aa(lp174
F0.013754421516805268
aF0.010384792880381463
aF5.9787093356813585
aa(lp175
F0.01386769718907761
aF0.003853597530311506
aF5.98347701463012
aa(lp176
F0.013878968422348146
aF0.003853597530311506
aF5.983467816708497
aa(lp177
F0.013965299326786532
aF0.0012289565222661789
aF5.985480778254812
aa(lp178
F0.014992026204939498
aF0.00021802172624656993
aF5.984602027745288
aa(lp179
F0.015207537095570711
aF0.0036096496015923484
aF5.983517766740158
aa(lp180
F0.015226605984529996
aF0.0034941492021837066
aF5.9827279458718055
aa(lp181
F0.015417477257360679
aF0.00019100033058126048
aF5.9873119223765805
aa(lp182
F0.01559115535861426
aF0.0014578036213288145
aF5.983549551959711
aa(lp183
F0.01559115535861426
aF0.001680538190868842
aF5.983320229790871
aa(lp184
F0.015596665415932826
aF7.065641210641193e-05
aF5.98913906837393
aa(lp185
F0.015622124312054814
aF0.0012458609912004287
aF5.98335930515039
aa(lp186
F0.015622124312054814
aF0.0033779278308736973
aF5.983022136221582
aa(lp187
F0.015622124312054814
aF0.003557957934614425
aF5.981006126566854
aa(lp188
F0.01569440239887577
aF0.006075181248851753
aF5.9804691871216065
aa(lp189
F0.016089569271946016
aF0.001091743365611775
aF5.984394710331827
aa(lp190
F0.01611899739252432
aF0.006063177507942066
aF5.979725097060596
aa(lp191
F0.016479233369221954
aF0.0012471033978314477
aF5.982204239075042
aa(lp192
F0.017929662253912303
aF0.0028708989609061665
aF5.9803103827757615
aa(lp193
F0.018231630781901924
aF0.0007327420143080484
aF5.984122687295778
aa(lp194
F0.01832148114743467
aF0.0011875320687591486
aF5.9830392955753
aa(lp195
F0.018472880643717906
aF0.0012782575704970074
aF5.9804611754254475
aa(lp196
F0.018725060827965042
aF0.0007327420143080484
aF5.983396759170607
aa(lp197
F0.018778428478720313
aF0.00012409099607851685
aF5.985748541936707
aa(lp198
F0.018778428478720313
aF0.0007826229159556246
aF5.982199358956497
aa(lp199
F0.018809218480065625
aF0.0006332598260631139
aF5.984239870027924
aa(lp200
F0.018875263220924504
aF0.0009904134180950819
aF5.98082574069732
aa(lp201
F0.01920786401998886
aF0.00011838757305932348
aF5.98389152672485
aa(lp202
F0.019225958251203143
aF0.00011293412237483685
aF5.982069021078004
aa(lp203
F0.019280986107447162
aF0.0001885414468738439
aF5.982039693187043
aa.