(lp0
F0.958999951972256
aF0.9571070994873662
aF0.9781066380797899
aF0.9192045213441066
aF0.9568998876473347
aF0.9577700426883724
aF0.9569833793515793
aF0.8712697823685506
aF0.958942125680236
aF0.9564907677292069
aF0.9562041638684535
aF0.9155950606105272
aF0.9400619332863294
aF0.9558839141919576
aF0.9581401229765993
aF0.9558786482278687
aF0.9570363391540753
aF0.9148503780975525
aF0.9151437410960533
aF0.9562800518378689
aF0.9130101744860053
aF0.9151783983672044
aF0.9563438811222313
aF0.911009384808457
aF0.9578667006699526
aF0.9110304306087987
aF0.9582832755121669
aF0.957134682201088
aF0.9243594720708601
aF0.9561208573848267
a.