(lp0
(lp1
F0.23284466724298825
aF0.309498969158223
aF0.9219510556566978
aa(lp2
F0.23284483543582005
aF0.3095055561237212
aF0.9219488019078999
aa(lp3
F0.23284995783539947
aF0.3094875577311683
aF0.9219535502104482
aa(lp4
F0.23285092416017503
aF0.30946551926922955
aF0.921960703881233
aa(lp5
F0.23285147531583603
aF0.30946560795243677
aF0.921960534913435
aa(lp6
F0.23285255015048897
aF0.30947304963962274
aF0.9219577655376441
aa(lp7
F0.23285299118762887
aF0.3094644673578967
aF0.921960534913435
aa(lp8
F0.23285311610275522
aF0.30946358997314277
aF0.9219607978662495
aa(lp9
F0.2328549307064809
aF0.3094630079796496
aF0.921960534913435
aa(lp10
F0.2328572105598903
aF0.3094899291452942
aF0.921950922364042
aa(lp11
F0.23285824150116147
aF0.30949368445442815
aF0.9219494013490164
aa(lp12
F0.23286133436338516
aF0.30948081262479393
aF0.9219529410851732
aa(lp13
F0.23286401846953017
aF0.3094844097458269
aF0.9219510556566978
aa(lp14
F0.2328643626485726
aF0.30948337940358445
aF0.9219513145937865
aa(lp15
F0.23286472962331614
aF0.309483874654174
aF0.9219510556566978
aa(lp16
F0.23286473324130397
aF0.3094838719318939
aF0.9219510556566978
aa(lp17
F0.2328647395687414
aF0.3094838671709445
aF0.9219510556566978
aa(lp18
F0.23286474021369616
aF0.30948386668566163
aF0.9219510556566978
aa(lp19
F0.2328649046182759
aF0.3094840996967774
aF0.9219509359136182
aa(lp20
F0.23286511051913567
aF0.3094843733448925
aF0.9219507920481602
aa(lp21
F0.23286695458365186
aF0.30947493771589324
aF0.9219534936148783
aa(lp22
F0.2328681167663433
aF0.3094530857106282
aF0.921960534913435
aa(lp23
F0.232868782249807
aF0.30948925317967485
aF0.921948226539744
aa(lp24
F0.2328692860625038
aF0.3094953845172919
aF0.9219460410301861
aa(lp25
F0.23287011462089047
aF0.30948189778557816
aF0.9219503591080651
aa(lp26
F0.23287029376765356
aF0.3094660613056872
aF0.921955629724398
aa(lp27
F0.2328708210877769
aF0.3094957321581698
aF0.9219455366027773
aa(lp28
F0.2328712096239106
aF0.3094939371895082
aF0.9219460410301861
aa(lp29
F0.2328712569182616
aF0.30950964928628977
aF0.9219407544414049
aa(lp30
F0.23287152178755843
aF0.3095182672876571
aF0.9219377942982884
aa(lp31
F0.23287246378214263
aF0.30949560400942
aF0.9219451646984645
aa(lp32
F0.23287488054245856
aF0.3095050453139537
aF0.9219413847623629
aa(lp33
F0.2328754275537043
aF0.3095046337361304
aF0.9219413847623629
aa(lp34
F0.23287566593552905
aF0.30947564554999224
aF0.9219510556566978
aa(lp35
F0.23287773130342776
aF0.30950260472841995
aF0.921941484004973
aa(lp36
F0.23287841894641972
aF0.30950518325297893
aF0.9219404446755527
aa(lp37
F0.23287913131580557
aF0.3095046472495042
aF0.9219404446755527
aa(lp38
F0.23287921868520592
aF0.3095045815105364
aF0.9219404446755527
aa(lp39
F0.23288062356705855
aF0.3095061626417685
aF0.921939559002533
aa(lp40
F0.23288123001295433
aF0.30946982612122703
aF0.921951603625782
aa(lp41
F0.2328881268858077
aF0.3094910460641704
aF0.921942738331251
aa(lp42
F0.23289176170298398
aF0.3095359149941601
aF0.921926756667583
aa(lp43
F0.23289685659367454
aF0.30951467681372224
aF0.9219326000449721
aa(lp44
F0.2328974983931123
aF0.30949170692196737
aF0.9219401491359173
aa(lp45
F0.23289796695682635
aF0.30949311225549414
aF0.921939559002533
aa(lp46
F0.23289834298952536
aF0.3094928292851844
aF0.921939559002533
aa(lp47
F0.23289870846273913
aF0.3094300626288931
aF0.921960534913435
aa(lp48
F0.23289928553553355
aF0.30952985692624246
aF0.9219268899800341
aa(lp49
F0.23291033552863546
aF0.3094503376402327
aF0.9219507926881372
aa(lp50
F0.23291766105420017
aF0.3095557493535363
aF0.9219135540880237
aa(lp51
F0.23292418940285822
aF0.30952781228423215
aF0.9219212848250975
aa(lp52
F0.23297372660202406
aF0.3093735844820919
aF0.921960534913435
aa(lp53
F0.2329911812097558
aF0.309378196553684
aF0.921954576416687
aa(lp54
F0.23307894725520908
aF0.30930290527409365
aF0.9219576547409368
aa(lp55
F0.23307985499411943
aF0.3093029987007164
aF0.9219573939128993
aa(lp56
F0.2330853545174392
aF0.3093193170269893
aF0.9219505288373322
aa(lp57
F0.23308758510138916
aF0.3093153748944667
aF0.9219512875014049
aa(lp58
F0.23308808765582556
aF0.30930700769266023
aF0.9219539676063891
aa(lp59
F0.23308815166146668
aF0.30930709262790307
aF0.9219539229295112
aa(lp60
F0.23308966400613212
aF0.3093070755202572
aF0.9219535463170659
aa(lp61
F0.2330907558212142
aF0.30930105616729947
aF0.9219552896992826
aa(lp62
F0.23309218152684383
aF0.3093124402439642
aF0.9219511099951998
aa(lp63
F0.23309225937245048
aF0.30931254354478877
aF0.9219510556566978
aa(lp64
F0.2330930140948925
aF0.309313545058605
aF0.9219505288373322
aa(lp65
F0.23309327254310974
aF0.30930331654632676
aF0.9219538950883533
aa(lp66
F0.2330943436127967
aF0.30933950127073573
aF0.921941484004973
aa(lp67
F0.23309436070982506
aF0.3093109600042949
aF0.9219510556566978
aa(lp68
F0.23309484449551365
aF0.3093157591847008
aF0.9219493232220546
aa(lp69
F0.23309623449176764
aF0.30931781851303614
aF0.9219482808791908
aa(lp70
F0.23309694585473387
aF0.30931417562664465
aF0.9219493232220546
aa(lp71
F0.23309773016504529
aF0.30930842077997867
aF0.9219510556566978
aa(lp72
F0.23309815205117856
aF0.30931303377406527
aF0.9219494013490164
aa(lp73
F0.23310205885045115
aF0.3093103224434586
aF0.9219493232220546
aa(lp74
F0.23310288668009063
aF0.309326645941694
aF0.9219436372858542
aa(lp75
F0.2331034273887532
aF0.3093041272164289
aF0.9219510556566978
aa(lp76
F0.23310506132133846
aF0.3093295316823766
aF0.9219421192328381
aa(lp77
F0.23310553570192336
aF0.3093301611836124
aF0.9219417880795077
aa(lp78
F0.23310611345638768
aF0.30933092786159383
aF0.9219413847623629
aa(lp79
F0.23310660446813908
aF0.3093166797670328
aF0.9219460410301861
aa(lp80
F0.23310938796603348
aF0.30933553506113903
aF0.9219390109928857
aa(lp81
F0.23311502027553102
aF0.30934274717679344
aF0.9219351669673161
aa(lp82
F0.23311524548216475
aF0.3093430460251417
aF0.9219350097483429
aa(lp83
F0.2331195946252614
aF0.3093467930783517
aF0.9219326527539271
aa(lp84
F0.23319359254136426
aF0.30944498738963516
aF0.921880983737641
aa(lp85
F0.23340575313575454
aF0.310240644574705
aF0.9215598172972836
aa(lp86
F0.23342816873933278
aF0.3102341552257522
aF0.9215563243613303
aa(lp87
F0.23359149777499413
aF0.3104512251949676
aF0.9214418315564897
aa(lp88
F0.23360018401365076
aF0.31046276950826224
aF0.9214357399070475
aa(lp89
F0.23360371509259084
aF0.3104780782977656
aF0.9214296865151818
aa(lp90
F0.2336062306115055
aF0.3104803378395287
aF0.9214282874074011
aa(lp91
F0.23361331589704976
aF0.3104906238743129
aF0.9214230250659711
aa(lp92
F0.23361502009166016
aF0.3104824871719571
aF0.9214253347651609
aa(lp93
F0.2336150682191223
aF0.31048255113502826
aF0.9214253010101575
aa(lp94
F0.23361608836893447
aF0.31048853784555885
aF0.9214230250659711
aa(lp95
F0.2336180190480428
aF0.3104864952092178
aF0.9214232238601134
aa(lp96
F0.23361831320498053
aF0.3104868638340991
aF0.9214230250659711
aa(lp97
F0.23361847633736105
aF0.31048674108902735
aF0.9214230250659711
aa(lp98
F0.23361860632908382
aF0.3104872534062277
aF0.9214228194749213
aa(lp99
F0.2336186904450831
aF0.31048657998857093
aF0.9214230250659711
aa(lp100
F0.23361886624595543
aF0.3104875988447904
aF0.9214226371744678
aa(lp101
F0.23361922241201868
aF0.31048695631255346
aF0.9214227633824608
aa(lp102
F0.23362007733246337
aF0.31048920842088273
aF0.921421787739658
aa(lp103
F0.23362013544188598
aF0.3100413030115439
aF0.9215725813754546
aa(lp104
F0.2336249003490516
aF0.3104588947702842
aF0.921430779057716
aa(lp105
F0.23362515467862627
aF0.3104817160150703
aF0.9214230250659711
aa(lp106
F0.2336255651065473
aF0.3104965018635131
aF0.9214179386462844
aa(lp107
F0.2336256058036948
aF0.31049655595143755
aF0.9214179101011399
aa(lp108
F0.23363538782860896
aF0.31050956981674227
aF0.9214110443262535
aa(lp109
F0.23363539417701698
aF0.31050956504003663
aF0.9214110443262535
aa(lp110
F0.23363611131644496
aF0.31050902544456355
aF0.9214110443262535
aa(lp111
F0.23364019861645227
aF0.31002916577926126
aF0.9215715783142838
aa(lp112
F0.23380838064258289
aF0.3102616551859958
aF0.9214506750024872
aa(lp113
F0.2338364058779182
aF0.31030002313332544
aF0.9214306435807066
aa(lp114
F0.2338417394730332
aF0.31033382122305875
aF0.9214179075128293
aa(lp115
F0.23384626655517807
aF0.31031521473572554
aF0.9214230250659711
aa(lp116
F0.23384973120108532
aF0.31031260382951736
aF0.9214230250659711
aa(lp117
F0.23384988909960666
aF0.3102869592507796
aF0.9214316210587776
aa(lp118
F0.23385015232665787
aF0.31032738937714
aF0.9214179386462844
aa(lp119
F0.23385027963958865
aF0.31031219052876574
aF0.9214230250659711
aa(lp120
F0.23385941445977274
aF0.3103305554341232
aF0.9214145216092922
aa(lp121
F0.23385952499989873
aF0.3103267814180056
aF0.921415764626134
aa(lp122
F0.23386132688332473
aF0.31030501686376233
aF0.9214226371744678
aa(lp123
F0.23386736207698436
aF0.31034110189199987
aF0.9214089523287757
aa(lp124
F0.23387909980528113
aF0.3103485554546297
aF0.9214034625512844
aa.