(lp0
(lp1
F0.1478667367430232
aF0.14786673674302317
aF0.9778910247721568
aa(lp2
F0.14786676035016483
aF0.1478667603501648
aF0.9778910176328924
aa(lp3
F0.1478667872197579
aF0.1478667872197579
aF0.977891009506997
aa(lp4
F0.1478667872197579
aF0.1478667872197579
aF0.977891009506997
aa(lp5
F0.1478667924779725
aF0.14786679247797246
aF0.9778910079168089
aa(lp6
F0.1478667924779725
aF0.14786679247797246
aF0.9778910079168089
aa(lp7
F0.1478674835471308
aF0.1478674835471308
aF0.9778907989233143
aa(lp8
F0.14786822602394942
aF0.1478682260239494
aF0.9778905743819502
aa(lp9
F0.1478682294893051
aF0.14786822948930506
aF0.9778905733339475
aa(lp10
F0.1478682294893051
aF0.14786822948930506
aF0.9778905733339475
aa(lp11
F0.14786851376023116
aF0.14786851376023116
aF0.977890487363836
aa(lp12
F0.1478685641060559
aF0.14786856410605587
aF0.9778904721380746
aa(lp13
F0.14786862546315424
aF0.1478686254631542
aF0.9778904535822378
aa(lp14
F0.14786885140468944
aF0.14786885140468942
aF0.9778903852521078
aa(lp15
F0.14786885140468944
aF0.14786885140468942
aF0.9778903852521078
aa(lp16
F0.147868857512154
aF0.147868857512154
aF0.9778903834050627
aa(lp17
F0.14786902405959726
aF0.14786902405959726
aF0.9778903330370561
aa(lp18
F0.14786902405959726
aF0.14786902405959726
aF0.9778903330370561
aa(lp19
F0.14786908178653
aF0.14786908178653
aF0.9778903155790106
aa(lp20
F0.14786908389291523
aF0.1478690838929152
aF0.9778903149419877
aa(lp21
F0.1478691599762543
aF0.14786915997625427
aF0.9778902919325019
aa(lp22
F0.14786921471984185
aF0.14786921471984182
aF0.9778902753766777
aa(lp23
F0.14786924771063598
aF0.14786924771063595
aF0.9778902653994369
aa(lp24
F0.14786925273636248
aF0.14786925273636248
aF0.9778902638795314
aa(lp25
F0.14786928517236086
aF0.14786928517236084
aF0.977890254070072
aa(lp26
F0.14786929912279456
aF0.14786929912279453
aF0.9778902498511104
aa(lp27
F0.14786930663396006
aF0.14786930663396003
aF0.977890247579545
aa(lp28
F0.14786931732071165
aF0.14786931732071165
aF0.9778902443476023
aa(lp29
F0.14786934817240632
aF0.1478693481724063
aF0.9778902350172719
aa(lp30
F0.1478693698536228
aF0.14786936985362278
aF0.9778902284603241
aa(lp31
F0.1478693908649741
aF0.14786939086497408
aF0.9778902221059597
aa(lp32
F0.14786939984990827
aF0.14786939984990824
aF0.9778902193886878
aa(lp33
F0.14786940188041842
aF0.1478694018804184
aF0.97789021877461
aa(lp34
F0.14786940813620392
aF0.1478694081362039
aF0.9778902168827017
aa(lp35
F0.14786941219804212
aF0.1478694121980421
aF0.9778902156542988
aa(lp36
F0.14786941952171617
aF0.14786941952171614
aF0.9778902134394338
aa(lp37
F0.14786942262140923
aF0.1478694226214092
aF0.9778902125020079
aa(lp38
F0.1478694256291795
aF0.1478694256291795
aF0.9778902115923818
aa(lp39
F0.1478694256291795
aF0.1478694256291795
aF0.9778902115923818
aa(lp40
F0.1478694256291795
aF0.1478694256291795
aF0.9778902115923818
aa(lp41
F0.1478694256291795
aF0.1478694256291795
aF0.9778902115923818
aa(lp42
F0.1478694256291795
aF0.1478694256291795
aF0.9778902115923818
aa(lp43
F0.1478694256291795
aF0.1478694256291795
aF0.9778902115923818
aa(lp44
F0.1478694256291795
aF0.1478694256291795
aF0.9778902115923818
aa(lp45
F0.1478694256291795
aF0.1478694256291795
aF0.9778902115923818
aa(lp46
F0.1478694256291795
aF0.1478694256291795
aF0.9778902115923818
aa(lp47
F0.1478694256291795
aF0.1478694256291795
aF0.9778902115923818
aa(lp48
F0.1478694256291795
aF0.1478694256291795
aF0.9778902115923818
aa(lp49
F0.1478694256291795
aF0.1478694256291795
aF0.9778902115923818
aa(lp50
F0.1478694256291795
aF0.1478694256291795
aF0.9778902115923818
aa(lp51
F0.1478694256291795
aF0.1478694256291795
aF0.9778902115923818
aa(lp52
F0.1478694256291795
aF0.1478694256291795
aF0.9778902115923818
aa(lp53
F0.1478694256291795
aF0.1478694256291795
aF0.9778902115923818
aa(lp54
F0.1478694256291795
aF0.1478694256291795
aF0.9778902115923818
aa(lp55
F0.1478694256291795
aF0.1478694256291795
aF0.9778902115923818
aa(lp56
F0.1478694256291795
aF0.1478694256291795
aF0.9778902115923818
aa(lp57
F0.1478694256291795
aF0.1478694256291795
aF0.9778902115923818
aa(lp58
F0.1478694256291795
aF0.1478694256291795
aF0.9778902115923818
aa(lp59
F0.1478694256291795
aF0.1478694256291795
aF0.9778902115923818
aa(lp60
F0.1478694256291795
aF0.1478694256291795
aF0.9778902115923818
aa(lp61
F0.1478694256291795
aF0.1478694256291795
aF0.9778902115923818
aa(lp62
F0.1478694256291795
aF0.1478694256291795
aF0.9778902115923818
aa(lp63
F0.1478694256291795
aF0.1478694256291795
aF0.9778902115923818
aa(lp64
F0.1478694256291795
aF0.1478694256291795
aF0.9778902115923818
aa(lp65
F0.1478694256291795
aF0.1478694256291795
aF0.9778902115923818
aa(lp66
F0.1478694256291795
aF0.1478694256291795
aF0.9778902115923818
aa(lp67
F0.14786942582511617
aF0.14786942582511614
aF0.9778902115331255
aa(lp68
F0.14786942909453407
aF0.14786942909453404
aF0.9778902105443704
aa(lp69
F0.14786943849156328
aF0.14786943849156325
aF0.9778902077024698
aa(lp70
F0.1478694452114273
aF0.14786944521142728
aF0.9778902056702119
aa(lp71
F0.14786945567260854
aF0.14786945567260854
aF0.9778902025064843
aa(lp72
F0.14786946725763767
aF0.14786946725763764
aF0.9778901990028762
aa(lp73
F0.14786946829863687
aF0.14786946829863684
aF0.9778901986880515
aa(lp74
F0.1478694757268355
aF0.14786947572683548
aF0.9778901964415747
aa(lp75
F0.14786948089456725
aF0.14786948089456722
aF0.9778901948787208
aa(lp76
F0.1478694922369256
aF0.14786949223692558
aF0.9778901914485019
aa(lp77
F0.1478695045893416
aF0.14786950458934156
aF0.9778901877128154
aa(lp78
F0.14786951877026894
aF0.14786951877026894
aF0.97789018342414
aa(lp79
F0.1478695665961506
aF0.14786956659615058
aF0.977890168960366
aa(lp80
F0.14786956679208724
aF0.1478695667920872
aF0.9778901689011097
aa(lp81
F0.14786967233198903
aF0.147869672331989
aF0.9778901369831176
aa(lp82
F0.14786975628245408
aF0.14786975628245405
aF0.9778901115943116
aa(lp83
F0.14786987053431017
aF0.14786987053431017
aF0.9778900770415521
aa(lp84
F0.14787004955946814
aF0.14787004955946811
aF0.9778900228995902
aa(lp85
F0.14787004955946814
aF0.14787004955946811
aF0.9778900228995902
aa(lp86
F0.1478700732802955
aF0.1478700732802955
aF0.9778900157257768
aa(lp87
F0.14787078935125028
aF0.14787078935125025
aF0.9778897991661823
aa(lp88
F0.14787098338838958
aF0.14787098338838955
aF0.977889740483814
aa(lp89
F0.147870996250767
aF0.14787099625076697
aF0.9778897365938612
aa(lp90
F0.14787101862555424
aF0.1478710186255542
aF0.9778897298270812
aa(lp91
F0.1478711721266934
aF0.14787117212669337
aF0.9778896834038876
aa(lp92
F0.14787511688192512
aF0.1478751168819251
aF0.9778884903782813
aa(lp93
F0.14787511688192512
aF0.1478751168819251
aF0.9778884903782813
aa(lp94
F0.14787511688192512
aF0.1478751168819251
aF0.9778884903782813
aa(lp95
F0.14787511688192512
aF0.1478751168819251
aF0.9778884903782813
aa(lp96
F0.14787511688192512
aF0.1478751168819251
aF0.9778884903782813
aa(lp97
F0.14787511688192512
aF0.1478751168819251
aF0.9778884903782813
aa.