(lp0
F0.7236288576092929
aF0.7191688527144763
aF0.7285275130591196
aF0.7268014125936861
aF0.7248252223448832
aF0.7289530843716449
aF0.7241912772432259
aF0.7228211474443679
aF0.7239797926898179
aF0.7288379824832196
aF0.7206583884480579
aF0.7240035036434448
aF0.7217700027885651
aF0.7164888839890728
aF0.7157570826010964
aF0.7242247074091375
aF0.721817331111821
aF0.7231305924971914
aF0.7241966208634333
aF0.7227597232867657
aF0.7176175280840118
aF0.7216045960284361
aF0.7250207347275349
aF0.7293575988740865
aF0.7264846184416713
aF0.7261823995078602
aF0.7269641789916073
aF0.7203707952277074
aF0.7213949825151742
aF0.7259181191439615
a.