(lp0
(lp1
F0.41435801350531376
aF0.28400323051394377
aF0.8646673358590423
aa(lp2
F0.4143629239537216
aF0.28400335555389683
aF0.8646649416315253
aa(lp3
F0.41436309729379256
aF0.2839895732134053
aF0.8646693853185522
aa(lp4
F0.41436600714351907
aF0.2839915675198176
aF0.8646673358590423
aa(lp5
F0.4143666976657029
aF0.28456460774216646
aF0.8644785849783481
aa(lp6
F0.41436670876401954
aF0.28456459158143216
aF0.8644785849783481
aa(lp7
F0.4143667180562411
aF0.28456462174528385
aF0.864478570595167
aa(lp8
F0.4143667232341272
aF0.2845646253011756
aF0.8644785669427634
aa(lp9
F0.41436672930801094
aF0.28456462947239003
aF0.8644785626583362
aa(lp10
F0.4143667728665587
aF0.2845646593860417
aF0.864478531932783
aa(lp11
F0.41436677443787734
aF0.28456449595088695
aF0.8644785849783481
aa(lp12
F0.41436677452546944
aF0.2845644958233403
aF0.8644785849783481
aa(lp13
F0.414366925283114
aF0.2845642762984338
aF0.8644785849783481
aa(lp14
F0.4143672168348522
aF0.2845638365450008
aF0.864478589985506
aa(lp15
F0.4143672335286929
aF0.2845638480093811
aF0.8644785782099355
aa(lp16
F0.414367233900182
aF0.2845638474684379
aF0.8644785782099355
aa(lp17
F0.41436723945645654
aF0.2845649798147151
aF0.8644782028069223
aa(lp18
F0.4143672757363016
aF0.28456376598700844
aF0.8644785849783481
aa(lp19
F0.41436730964799295
aF0.2845650280184611
aF0.8644781532947705
aa(lp20
F0.4143683675411086
aF0.2845621761498703
aF0.8644785849783481
aa(lp21
F0.41436845820443224
aF0.2845620441294215
aF0.8644785849783481
aa(lp22
F0.4143684688994219
aF0.2845620285557824
aF0.8644785849783481
aa(lp23
F0.41436900541939
aF0.2845612472941082
aF0.8644785849783481
aa(lp24
F0.4143692907540695
aF0.28456638853482674
aF0.8644767558449535
aa(lp25
F0.41436948324844736
aF0.28456055149343495
aF0.8644785849783481
aa(lp26
F0.41436960499868447
aF0.2845666043410103
aF0.8644765341795352
aa(lp27
F0.4143697965359495
aF0.28455281700929114
aF0.8644809807340083
aa(lp28
F0.41437103338615044
aF0.28455829421109285
aF0.8644785849783481
aa(lp29
F0.41437111015662154
aF0.2845581824186437
aF0.8644785849783481
aa(lp30
F0.414371303940052
aF0.28455790023271915
aF0.8644785849783481
aa(lp31
F0.4143730899593412
aF0.2845552994259303
aF0.8644785849783481
aa(lp32
F0.4143742540988536
aF0.28456979709123237
aF0.8644732547184288
aa(lp33
F0.41437427250443476
aF0.28455357738087483
aF0.8644785849783481
aa(lp34
F0.4143743292992459
aF0.28456984873478924
aF0.8644732016718965
aa(lp35
F0.41437450011302285
aF0.2845532459310832
aF0.8644785849783481
aa(lp36
F0.41437470710491736
aF0.284552944503386
aF0.8644785849783481
aa(lp37
F0.4143748710866257
aF0.2845702208050209
aF0.8644728194934321
aa(lp38
F0.4143761359304176
aF0.2845501267897365
aF0.8644788275691435
aa(lp39
F0.41437626708492376
aF0.2845506727994102
aF0.8644785849783481
aa(lp40
F0.41437696148781267
aF0.28457165637934956
aF0.8644713449118144
aa(lp41
F0.41437698187818006
aF0.28457167038234965
aF0.8644713305282772
aa(lp42
F0.41437702341498495
aF0.2845716989075778
aF0.8644713012278614
aa(lp43
F0.4143772330426179
aF0.28457184286848364
aF0.8644711533546847
aa(lp44
F0.41437807530022225
aF0.2845541670874811
aF0.8644765680477599
aa(lp45
F0.4143802530692865
aF0.28454486813166596
aF0.8644785849783481
aa(lp46
F0.4143819623331634
aF0.284542378929308
aF0.8644785849783481
aa(lp47
F0.41438351353253605
aF0.2845761559688367
aF0.8644667229954146
aa(lp48
F0.4143852096816977
aF0.2845376497247571
aF0.8644785849783481
aa(lp49
F0.41438528653418294
aF0.2845375378009309
aF0.8644785849783481
aa(lp50
F0.4143862889701051
aF0.284536077901235
aF0.8644785849783481
aa(lp51
F0.41438685124920366
aF0.28453525902004384
aF0.8644785849783481
aa(lp52
F0.4143877941795395
aF0.28453388576555994
aF0.8644785849783481
aa(lp53
F0.4143882098492061
aF0.28452463923657806
aF0.8644814290690491
aa(lp54
F0.4143971329321159
aF0.28446209627596347
aF0.8644977339472479
aa(lp55
F0.4144051541037092
aF0.28450860156788604
aF0.8644785849783481
aa(lp56
F0.4144143036863074
aF0.28449527415060183
aF0.8644785849783481
aa(lp57
F0.4144203388338694
aF0.28448648276263305
aF0.8644785849783481
aa(lp58
F0.41442825873386796
aF0.2844749453270274
aF0.8644785849539588
aa(lp59
F0.4144850483727654
aF0.28455764458255695
aF0.8644241387103055
aa(lp60
F0.4145103807955084
aF0.2843552713184613
aF0.8644785849783481
aa(lp61
F0.41455564996006417
aF0.28415300460870524
aF0.8645233849110352
aa(lp62
F0.4145727781273792
aF0.28470613264286576
aF0.8643331705258626
aa(lp63
F0.4145737292946421
aF0.284706785853031
aF0.8643324991390577
aa(lp64
F0.41459121265761545
aF0.2842374051755346
aF0.8644785849783481
aa(lp65
F0.4146047013795515
aF0.2842177294044233
aF0.8644785849783481
aa(lp66
F0.4146064597722065
aF0.2842151643192017
aF0.8644785849783481
aa(lp67
F0.41461041966049256
aF0.284208788892194
aF0.8644787818248534
aa(lp68
F0.41461212887720905
aF0.2842068941840463
aF0.8644785849783481
aa(lp69
F0.41461641204912575
aF0.2842006456244297
aF0.8644785849783481
aa(lp70
F0.41461900629070936
aF0.28420239720681717
aF0.8644767648956235
aa(lp71
F0.41461919365918043
aF0.2841965599987466
aF0.8644785940289614
aa(lp72
F0.4146192003765802
aF0.2841965646031207
aF0.8644785892934941
aa(lp73
F0.41462010122435833
aF0.28419520399705095
aF0.864478604527479
aa(lp74
F0.41462018286083435
aF0.28419514436084475
aF0.8644785849783481
aa(lp75
F0.41462110761407917
aF0.28419379520796595
aF0.8644785849783481
aa(lp76
F0.41462125313492426
aF0.28419909870032767
aF0.864476771664078
aa(lp77
F0.4146216862667038
aF0.2841929509878599
aF0.8644785849783481
aa(lp78
F0.4146217085215341
aF0.28419828378587636
aF0.8644768211559212
aa(lp79
F0.41462171446453255
aF0.28419844624854723
aF0.8644767648956235
aa(lp80
F0.4146217566662387
aF0.2841983167861803
aF0.8644767872157727
aa(lp81
F0.41462176012850616
aF0.2841928432275742
aF0.8644785849783481
aa(lp82
F0.4146217883277632
aF0.28419833848825415
aF0.8644767648956235
aa(lp83
F0.41462198803653544
aF0.2841984753766253
aF0.8644766241086179
aa(lp84
F0.414625741000317
aF0.2841870352668664
aF0.8644785849783481
aa(lp85
F0.41462581779766855
aF0.28419245973672724
aF0.8644767648956235
aa(lp86
F0.41462631900394925
aF0.28418619196412137
aF0.8644785849783481
aa(lp87
F0.41481951477194307
aF0.28435482860001066
aF0.8643304354332482
aa(lp88
F0.4150077800397408
aF0.28475052285251456
aF0.864109762843648
aa(lp89
F0.41502186960161136
aF0.28470615405861516
aF0.8641176156019128
aa(lp90
F0.4150738653957329
aF0.284795866194439
aF0.8640630769012204
aa(lp91
F0.4151556851395187
aF0.28466998462580423
aF0.8640652504003856
aa(lp92
F0.4153960735977504
aF0.2848727761524919
aF0.8638828644247694
aa(lp93
F0.4154254185597766
aF0.2830128011024648
aF0.8644798875778263
aa(lp94
F0.4154477618001907
aF0.2829839651034245
aF0.8644785900816491
aa(lp95
F0.41544777853756365
aF0.28298397650415547
aF0.8644785783060787
aa(lp96
F0.41544839543143286
aF0.2829886105288419
aF0.8644767648956235
aa(lp97
F0.4154503549230601
aF0.28298573141981626
aF0.8644767656837835
aa(lp98
F0.4154505164748709
aF0.2830327131640671
aF0.8644613071964239
aa(lp99
F0.415450920134875
aF0.2829793645890658
aF0.8644785782052984
aa(lp100
F0.41571326128898567
aF0.28318764600005053
aF0.8642842365457244
aa(lp101
F0.4157789921233005
aF0.28249708993680894
aF0.8644785849783481
aa(lp102
F0.41583001964966515
aF0.28301617129897977
aF0.8642842365457244
aa(lp103
F0.4158401058134121
aF0.2824071219942786
aF0.8644785849539588
aa(lp104
F0.415840719971793
aF0.28240753908416094
aF0.8644781532703814
aa(lp105
F0.41584661722392996
aF0.2823934961013006
aF0.8644799039324738
aa(lp106
F0.4158583873042936
aF0.282449503110287
aF0.8644559444537495
aa(lp107
F0.41585875735538763
aF0.28244873674645926
aF0.8644560168343802
aa(lp108
F0.4158651002629969
aF0.2823719985085944
aF0.8644780349098002
aa(lp109
F0.415872011670949
aF0.282428790037538
aF0.8644561576313111
aa(lp110
F0.4158722119630147
aF0.2824289260607475
aF0.8644560168343802
aa(lp111
F0.41587428717473646
aF0.2824303353874615
aF0.8644545580421397
aa.