(lp0
(lp1
F0.999999999999943
aF1.8398196802794717e-07
aF2.829631511742761e-07
aa(lp2
F0.9999999999999446
aF1.8398196802794746e-07
aF2.776637277011902e-07
aa(lp3
F0.9999999999999484
aF3.2117406855699663e-07
aF1.5581422365480665e-25
aa(lp4
F0.9999999999999485
aF3.2114401081696245e-07
aF1.802636101594173e-54
aa(lp5
F0.9999999999999492
aF3.1885913218749197e-07
aF1.362798610563379e-38
aa(lp6
F0.9999999999999514
aF3.1184775533635354e-07
aF1.3469738655428538e-52
aa(lp7
F0.9999999999999531
aF3.827607218647656e-08
aF3.0339612618568345e-07
aa(lp8
F0.9999999999999544
aF3.827607218647661e-08
aF2.9965922964985996e-07
aa(lp9
F0.9999999999999575
aF5.619112101944271e-242
aF2.9163525050263746e-07
aa(lp10
F0.9999999999999581
aF2.8942225942797266e-07
aF8.169651341258164e-53
aa(lp11
F0.9999999999999585
aF2.8810343927826374e-07
aF2.4155055088398682e-49
aa(lp12
F0.9999999999999594
aF2.8499662298022554e-07
aF1.703154924053223e-11
aa(lp13
F0.9999999999999599
aF2.830049437217145e-07
aF8.169651341258164e-53
aa(lp14
F0.9999999999999606
aF2.807896274831609e-07
aF3.0027683510741922e-52
aa(lp15
F0.9999999999999609
aF6.004517454731395e-28
aF2.797053190577348e-07
aa(lp16
F0.999999999999961
aF1.0426255433879464e-38
aF2.7933513789992444e-07
aa(lp17
F0.9999999999999619
aF2.75963732436028e-07
aF7.926458243503176e-47
aa(lp18
F0.9999999999999625
aF2.7382827914701873e-07
aF2.05776316790071e-43
aa(lp19
F0.9999999999999633
aF3.9703714506935435e-13
aF2.7117858516892645e-07
aa(lp20
F0.9999999999999635
aF2.701257133944446e-07
aF5.256147713679287e-106
aa(lp21
F0.9999999999999651
aF7.886170091174513e-08
aF2.5192825075695773e-07
aa(lp22
F0.9999999999999659
aF2.6119609794475123e-07
aF9.046690606835714e-227
aa(lp23
F0.9999999999999662
aF2.596586228401308e-07
aF7.258451462922331e-16
aa(lp24
F0.9999999999999672
aF3.9855595344216287e-25
aF2.560176229660309e-07
aa(lp25
F0.9999999999999679
aF2.534903061916675e-07
aF1.222740918881846e-239
aa(lp26
F0.9999999999999682
aF4.6357126527339346e-29
aF2.51807756151255e-07
aa(lp27
F0.9999999999999684
aF2.514167229404031e-07
aF1.1026827699172534e-16
aa(lp28
F0.9999999999999686
aF4.6357126527339363e-29
aF2.505628255801367e-07
aa(lp29
F0.9999999999999686
aF2.5085958567171543e-07
aF3.3160066563969555e-107
aa(lp30
F0.9999999999999692
aF2.479614151184778e-07
aF3.3160066563969555e-107
aa(lp31
F0.9999999999999702
aF2.438504765021245e-07
aF1.222740918881846e-239
aa(lp32
F0.9999999999999707
aF2.4201487038572686e-07
aF1.2385090738431194e-10
aa(lp33
F0.9999999999999731
aF5.0078462328782544e-08
aF2.2624377367152078e-07
aa(lp34
F0.9999999999999741
aF2.137869435826532e-07
aF7.705285594608207e-08
aa(lp35
F0.9999999999999742
aF1.3109508336728707e-08
aF2.2624377367152078e-07
aa(lp36
F0.9999999999999749
aF2.2414275924235222e-07
aF1.7057403370608275e-67
aa(lp37
F0.9999999999999759
aF2.10716422376973e-28
aF2.1926780012353758e-07
aa(lp38
F0.9999999999999762
aF2.1787502509988482e-07
aF1.4933933155493912e-29
aa(lp39
F0.9999999999999782
aF2.086993408904876e-07
aF2.692194249111863e-61
aa(lp40
F0.9999999999999784
aF1.9311662933400095e-07
aF7.704055353258347e-08
aa(lp41
F0.9999999999999784
aF2.035753749016319e-07
aF4.23564813970778e-08
aa(lp42
F0.9999999999999787
aF2.0658290738690726e-07
aF4.288949853882e-97
aa(lp43
F0.9999999999999789
aF1.1492511732334533e-43
aF2.053377351425369e-07
aa(lp44
F0.999999999999979
aF1.940518693458946e-43
aF2.0480869982013646e-07
aa(lp45
F0.999999999999979
aF2.051205695628405e-07
aF7.844402459247178e-39
aa(lp46
F0.9999999999999791
aF2.0357537490163206e-07
aF1.2689811449466897e-08
aa(lp47
F0.9999999999999791
aF2.0450615766913925e-07
aF7.844402459247178e-39
aa(lp48
F0.9999999999999792
aF2.0354389812800136e-07
aF3.4143015699382297e-38
aa(lp49
F0.9999999999999792
aF2.0357537490163208e-07
aF2.1848169537260843e-44
aa(lp50
F0.9999999999999793
aF2.0312820913918928e-07
aF2.2123101677698145e-25
aa(lp51
F0.9999999999999795
aF2.0250450478565228e-07
aF7.844402459247178e-39
aa(lp52
F0.9999999999999796
aF2.0037433255712388e-07
aF2.6803318069282617e-08
aa(lp53
F0.9999999999999798
aF7.886170091174628e-08
aF1.8468836154040713e-07
aa(lp54
F0.9999999999999798
aF2.009210615769269e-07
aF2.2681147323160188e-38
aa(lp55
F0.9999999999999799
aF2.0030555532703685e-07
aF8.122100807278856e-18
aa(lp56
F0.9999999999999802
aF1.9874704900755367e-07
aF4.61222711326527e-39
aa(lp57
F0.9999999999999809
aF1.9520563251739673e-07
aF5.02389465092343e-98
aa(lp58
F0.9999999999999809
aF1.9523583246151627e-07
aF1.2908267708474977e-100
aa(lp59
F0.999999999999981
aF1.9513504704933762e-07
aF4.046635221657309e-18
aa(lp60
F0.9999999999999812
aF1.9344806988001377e-07
aF2.7089951118101073e-17
aa(lp61
F0.9999999999999812
aF1.938920627594972e-07
aF1.636244916003112e-37
aa(lp62
F0.9999999999999813
aF6.127546294492739e-158
aF1.9326433600990738e-07
aa(lp63
F0.9999999999999813
aF1.9311662933400153e-07
aF7.844402459247178e-39
aa(lp64
F0.9999999999999818
aF1.5343202594361075e-28
aF1.9090000992438244e-07
aa(lp65
F0.9999999999999825
aF1.1367464764123383e-37
aF1.8710480154788685e-07
aa(lp66
F0.9999999999999829
aF5.0671194139300335e-28
aF1.8468836154040713e-07
aa(lp67
F0.9999999999999833
aF7.205021874052371e-30
aF1.8252094961459016e-07
aa(lp68
F0.9999999999999849
aF1.7386022329331635e-07
aF4.990202007683617e-28
aa(lp69
F0.9999999999999855
aF1.7029390358440842e-07
aF1.2403838205986855e-55
aa(lp70
F0.9999999999999859
aF1.6765490629491734e-07
aF7.52510187054739e-108
aa(lp71
F0.9999999999999868
aF1.6234166127917862e-07
aF6.029742903853147e-39
aa(lp72
F0.9999999999999869
aF1.6169549255209134e-07
aF2.728754824176019e-27
aa(lp73
F0.9999999999999869
aF1.6205226229988256e-07
aF7.844402459247178e-39
aa(lp74
F0.999999999999987
aF1.612713212337473e-07
aF2.075862094716547e-28
aa(lp75
F0.999999999999988
aF1.54681507868529e-07
aF8.169651341258164e-53
aa(lp76
F0.9999999999999887
aF1.3396906986847786e-164
aF1.5016846705121317e-07
aa(lp77
F0.9999999999999895
aF1.2548115050775694e-07
aF7.367594113419204e-08
aa(lp78
F0.9999999999999919
aF1.2712752184231202e-07
aF1.9229159814405e-19
aa(lp79
F0.999999999999992
aF1.2657042315617837e-07
aF2.2123101677698145e-25
aa(lp80
F0.9999999999999927
aF1.2101109750473434e-07
aF3.550044150525067e-49
aa(lp81
F0.9999999999999928
aF1.2025393766287273e-07
aF8.122100807278856e-18
aa(lp82
F0.9999999999999929
aF1.1877370745426959e-07
aF2.780559741570232e-17
aa(lp83
F0.999999999999993
aF1.1841558714267055e-07
aF8.169651341258164e-53
aa(lp84
F0.9999999999999936
aF1.1328623008611048e-07
aF6.994599387619338e-26
aa(lp85
F0.9999999999999937
aF1.1677283616896317e-08
aF1.1115843569713359e-07
aa(lp86
F0.9999999999999937
aF1.120627015987444e-07
aF7.844402459247178e-39
aa(lp87
F0.9999999999999937
aF1.1246117096002869e-07
aF3.882169194566279e-40
aa(lp88
F0.9999999999999939
aF3.2098511062061225e-45
aF1.1079017226815649e-07
aa(lp89
F0.9999999999999939
aF1.1028015509853545e-07
aF3.780468299540224e-39
aa(lp90
F0.9999999999999942
aF1.0037149617806422e-07
aF3.836487602889724e-08
aa(lp91
F0.9999999999999947
aF7.205021874052454e-30
aF1.0364310173617892e-07
aa(lp92
F0.999999999999995
aF5.067119413930095e-28
aF9.973101678110987e-08
aa(lp93
F0.9999999999999951
aF1.971738491540155e-253
aF9.855343083402915e-08
aa(lp94
F0.9999999999999952
aF5.867503735512143e-28
aF9.723670389169739e-08
aa(lp95
F0.9999999999999956
aF3.827789524328207e-08
aF8.537840004063805e-08
aa(lp96
F0.9999999999999958
aF9.133452089792954e-08
aF9.844246945892824e-26
aa(lp97
F0.9999999999999958
aF9.139361863781729e-08
aF1.7776102975754834e-52
aa(lp98
F0.999999999999996
aF8.938114249132973e-08
aF4.818953930528192e-18
aa(lp99
F0.9999999999999961
aF8.86371570706022e-08
aF4.818953930528192e-18
aa(lp100
F0.9999999999999963
aF8.016102332352789e-250
aF8.56648033633474e-08
aa(lp101
F0.9999999999999967
aF6.279382353787363e-08
aF5.245344064053062e-08
aa(lp102
F0.9999999999999969
aF7.886170091174763e-08
aF7.233849546617101e-10
aa(lp103
F0.9999999999999972
aF5.331749080262413e-31
aF7.43047055953779e-08
aa(lp104
F0.9999999999999972
aF4.527220626721233e-29
aF7.420505430015905e-08
aa(lp105
F0.9999999999999972
aF7.488142302205092e-08
aF1.6137474543539243e-10
aa(lp106
F0.9999999999999974
aF1.760379329794723e-123
aF7.135717397483542e-08
aa(lp107
F0.9999999999999976
aF2.6387841178447626e-134
aF7.02528926203691e-08
aa(lp108
F0.9999999999999976
aF5.376263517666685e-34
aF7.023302310298194e-08
aa(lp109
F0.9999999999999977
aF5.867503735512157e-28
aF6.843945073873243e-08
aa(lp110
F0.999999999999998
aF1.2644372130476218e-41
aF6.361097446660788e-08
aa(lp111
F0.9999999999999984
aF5.6452970550228566e-08
aF1.1419097748248661e-53
aa(lp112
F0.9999999999999986
aF3.9200305446006965e-268
aF5.368593257841758e-08
aa(lp113
F0.9999999999999988
aF4.6357126527340764e-29
aF5.015701760249736e-08
aa(lp114
F0.9999999999999989
aF5.067119413930115e-28
aF4.7624857423364877e-08
aa(lp115
F0.999999999999999
aF9.343484882405072e-30
aF4.4039806659310415e-08
aa(lp116
F0.999999999999999
aF4.3458274978478265e-08
aF4.61222711326527e-39
aa(lp117
F0.999999999999999
aF4.4917584528253254e-08
aF1.383445989483444e-39
aa(lp118
F0.9999999999999991
aF1.5033585774607724e-161
aF4.23564813970778e-08
aa(lp119
F0.9999999999999991
aF3.8276072186478315e-08
aF1.4998137508687367e-08
aa(lp120
F0.9999999999999991
aF4.3302826372486674e-08
aF2.9017790795736363e-44
aa(lp121
F0.9999999999999992
aF4.7539308811745135e-32
aF3.931376092208623e-08
aa(lp122
F0.9999999999999992
aF3.719010426659593e-08
aF1.8042326688786942e-08
aa(lp123
F0.9999999999999992
aF3.825556691009955e-08
aF3.6236328542675492e-40
aa(lp124
F0.9999999999999992
aF3.827607218647832e-08
aF5.464496981819079e-55
aa(lp125
F0.9999999999999992
aF4.03728494189919e-08
aF1.1208301857970988e-105
aa(lp126
F0.9999999999999993
aF1.2580470394932945e-42
aF3.5697144597490746e-08
aa(lp127
F0.9999999999999993
aF3.408554889040745e-08
aF1.519089346628713e-08
aa(lp128
F0.9999999999999993
aF3.53831378596241e-08
aF6.07724448964321e-45
aa(lp129
F0.9999999999999993
aF3.73346918359992e-08
aF5.855450891795404e-288
aa(lp130
F0.9999999999999994
aF3.255621483624506e-43
aF3.394159979515926e-08
aa(lp131
F0.9999999999999994
aF2.4080832090087734e-37
aF3.161158404045076e-08
aa(lp132
F0.9999999999999994
aF2.811064982836668e-08
aF1.519089346628713e-08
aa(lp133
F0.9999999999999994
aF3.161998723394452e-08
aF1.1208301857970988e-105
aa(lp134
F0.9999999999999996
aF5.867503735512168e-28
aF2.9966469864918206e-08
aa(lp135
F0.9999999999999996
aF2.8110649828366684e-08
aF1.1247454471460592e-38
aa(lp136
F0.9999999999999997
aF2.704552538904315e-08
aF4.602357060589198e-30
aa(lp137
F0.9999999999999998
aF1.3241593224718978e-23
aF1.887673044600731e-08
aa(lp138
F0.9999999999999998
aF2.0576046696192886e-08
aF4.602357060589198e-30
aa(lp139
F0.9999999999999999
aF2.5045848496324158e-225
aF1.5688111485454163e-08
aa(lp140
F0.9999999999999999
aF1.1042870286190636e-34
aF1.519089346628713e-08
aa(lp141
F0.9999999999999999
aF1.3241593224718978e-23
aF1.443080515218749e-08
aa(lp142
F0.9999999999999999
aF1.1444229685022739e-08
aF2.4359214917534665e-17
aa(lp143
F0.9999999999999999
aF1.3522902290022217e-08
aF7.844402459247178e-39
aa(lp144
F0.9999999999999999
aF1.4644652216641605e-08
aF9.133910194966613e-62
aa(lp145
F0.9999999999999999
aF1.6004705108233743e-08
aF5.855450891795404e-288
aa(lp146
F1.0
aF0.0
aF7.615953235203203e-77
aa(lp147
F1.0
aF1.410911294843729e-249
aF1.9417746001471802e-229
aa(lp148
F1.0
aF1.4096210624582407e-138
aF5.855450891795404e-288
aa(lp149
F1.0
aF6.607980517322886e-36
aF1.10637188e-315
aa.