(lp0
(lp1
F0.9512601277930444
aF0.5483093851106753
aa(lp2
F0.9515283316467342
aF0.5480407705830905
aa(lp3
F0.9522211561966534
aF0.5473443780579672
aa(lp4
F0.9600955276972523
aF0.5394629155611781
aa(lp5
F0.965637889529911
aF0.5339175853510422
aa(lp6
F0.9701271453660962
aF0.5294398044153756
aa(lp7
F0.9707021577646434
aF0.5288647920168285
aa(lp8
F0.970828972832504
aF0.5287379769489678
aa(lp9
F0.9711470870779799
aF0.5284063436398012
aa(lp10
F0.9771217508314112
aF0.5224053531820201
aa(lp11
F0.9787887714261891
aF0.5207822837990232
aa(lp12
F0.9793787082014203
aF0.5201487243323331
aa(lp13
F0.9796318431013018
aF0.5198916539639227
aa(lp14
F0.9797957785527164
aF0.5197306975514125
aa(lp15
F0.9799709168179372
aF0.5195505492055968
aa(lp16
F0.9803487836991316
aF0.519256827490171
aa(lp17
F0.9808313424397963
aF0.5187696357480793
aa(lp18
F0.9825041525033875
aF0.5170229515100437
aa(lp19
F0.9825155371202228
aF0.5170058333706851
aa(lp20
F0.9856763953901645
aF0.5138502196436544
aa(lp21
F0.9864066253480817
aF0.5131465790110565
aa(lp22
F0.9876831893224998
aF0.5118538408720419
aa(lp23
F0.9882916736153013
aF0.5112680494848061
aa(lp24
F0.9913669752581298
aF0.5081612446352011
aa(lp25
F0.991418327444325
aF0.5081507747854997
aa(lp26
F0.9950062339112326
aF0.5045208701021987
aa(lp27
F0.9959767647927656
aF0.5035389053775267
aa(lp28
F0.9982903608679314
aF0.5012163564590941
aa(lp29
F0.9997382201439056
aF0.49979922974059665
aa(lp30
F1.0041651688439928
aF0.4953619351694385
aa(lp31
F1.0045363169167125
aF0.4949905765631171
aa(lp32
F1.0066452167441582
aF0.492892233140344
aa(lp33
F1.0066488225717078
aF0.49287633062181774
aa(lp34
F1.007276475689583
aF0.49226022772641004
aa(lp35
F1.0104452509525539
aF0.48912169882891804
aa(lp36
F1.0115619317324076
aF0.48795137129831156
aa(lp37
F1.0133078043159018
aF0.4862218780068955
aa(lp38
F1.0168358957317432
aF0.48273453949233
aa(lp39
F1.0178036153754302
aF0.4817533078653328
aa(lp40
F1.0232017898674974
aF0.47633711344044194
aa(lp41
F1.0245690853755114
aF0.4749567677186183
aa(lp42
F1.0248836164904633
aF0.474671903271389
aa(lp43
F1.0259656277862992
aF0.4735718220982031
aa(lp44
F1.0274214520008431
aF0.4721209393633511
aa(lp45
F1.0287117205440213
aF0.4707871021190151
aa(lp46
F1.0289415141696927
aF0.470595788959668
aa(lp47
F1.0311209234883367
aF0.46845878834125343
aa(lp48
F1.034544278232626
aF0.46499334858534414
aa(lp49
F1.0352108467552374
aF0.46428797590779886
aa(lp50
F1.0357925937367507
aF0.463734234729451
aa(lp51
F1.0366039446426276
aF0.4629052920024633
aa(lp52
F1.0374622970841914
aF0.4620654392652234
aa(lp53
F1.0388976298035144
aF0.4606398878651438
aa(lp54
F1.039684857778745
aF0.4598525921057572
aa(lp55
F1.0426534603890811
aF0.45687557719065724
aa(lp56
F1.0464965810605154
aF0.4530217380454701
aa.