(lp0
(lp1
F0.2897138755878896
aF0.21041341294498
aa(lp2
F0.28973075652569763
aF0.21030120731154603
aa(lp3
F0.2897505421375867
aF0.21026348489236196
aa(lp4
F0.29019305811744367
aF0.21006710456268873
aa(lp5
F0.29024282624202946
aF0.20977698631648659
aa(lp6
F0.2910465521110778
aF0.20901378748442004
aa(lp7
F0.2910710556917629
aF0.20894179773933436
aa(lp8
F0.2911689785251469
aF0.2088372608186947
aa(lp9
F0.29117617530004786
aF0.20882650358136887
aa(lp10
F0.2912235891215102
aF0.20878590922662005
aa(lp11
F0.2913500444057677
aF0.2086595255645596
aa(lp12
F0.2917083583810419
aF0.20832360545620177
aa(lp13
F0.29179844339015304
aF0.20821441004094424
aa(lp14
F0.2920563323191334
aF0.2080040072763645
aa(lp15
F0.29208074812081064
aF0.2079321053102866
aa(lp16
F0.2920937162665423
aF0.20791783847451056
aa(lp17
F0.29209527212099223
aF0.20791624567596842
aa(lp18
F0.2922841995401463
aF0.2077207271640761
aa(lp19
F0.29231959893294485
aF0.20768482689681342
aa(lp20
F0.29244278382048183
aF0.20768255010133693
aa(lp21
F0.2926383478715276
aF0.2073712220987997
aa(lp22
F0.29304843617365783
aF0.20696370417526833
aa(lp23
F0.2930867704677305
aF0.20692608296336676
aa(lp24
F0.293401978244175
aF0.2066857504300612
aa(lp25
F0.29380429304622135
aF0.20628343562801488
aa(lp26
F0.2943149557489807
aF0.20569191949665877
aa(lp27
F0.2949143819614748
aF0.20519682563345798
aa(lp28
F0.2953322271606643
aF0.2048246263218493
aa(lp29
F0.29533766809975015
aF0.20469446455623028
aa(lp30
F0.2954847606600807
aF0.20451873396914969
aa(lp31
F0.29595411012081413
aF0.20416530358293333
aa(lp32
F0.2960627028159636
aF0.20397034700672614
aa(lp33
F0.29672808223777
aF0.2033736025327671
aa(lp34
F0.2975836432887172
aF0.202568827413058
aa(lp35
F0.2977537250265208
aF0.20233902890679095
aa(lp36
F0.29883755554002217
aF0.2012311397624909
aa(lp37
F0.29938839517131416
aF0.20089270536834222
aa(lp38
F0.29955500938844415
aF0.20050776800367384
aa(lp39
F0.30040793169411867
aF0.19959909285708868
aa(lp40
F0.3004837311517822
aF0.19952486327121333
aa(lp41
F0.3005339061583818
aF0.19946868771264728
aa(lp42
F0.30057902224301986
aF0.199430300716096
aa(lp43
F0.3007618082337384
aF0.19939066246803686
aa(lp44
F0.3008139949780536
aF0.1993188929244284
aa(lp45
F0.30123561631156337
aF0.19879907184056514
aa(lp46
F0.30164268839163744
aF0.19836072291213536
aa(lp47
F0.3019081547273611
aF0.1981689585958991
aa.