(lp0
F0.8391157576001725
aF0.8007209901756634
aF0.9089185802078451
aF0.8233708722491223
aF0.8292448199006379
aF0.7796397786080957
aF0.8400231189291579
aF0.9168064037985371
aF0.8303770171798766
aF0.8415791522684729
aF0.9276285297594508
aF0.8349406384496748
aF0.7683002015597478
aF0.824401136744712
aF0.8011312969120505
aF0.8082884951566809
aF0.8219599741018946
aF0.9493359053167058
aF0.8248167003417152
aF0.784693605317635
aF0.7833795022774636
aF0.7977879600842138
a.