(lp0
F0.708921434916015
aF0.7067547900088001
aF0.3568879133710827
aF0.00024821545286449025
aF8.583367776867151e-05
aF0.3533762363544728
aF0.35339615476592223
aF0.483282465678646
aF0.00015993773933979218
aF0.8892263445016093
aF0.0005227687012481386
aF0.00011770154467046563
aF0.35338645910875865
aF0.0001078924253085018
aF0.00020652994133900599
aF1.413501600031306
a.