(lp0
F0.6265115286688158
aF0.7284254424289462
aF0.40258121887976855
aF0.1650252720340743
aF0.7421683944665693
aF2.123553669470282
aF0.8626949774896547
aF0.2095213733975715
aF0.9999999999383677
aF0.9900178012791284
aF0.07699057222299438
aF0.7117592405070652
aF0.9996308736534517
aF0.687866832284132
aF0.8255065322169259
aF0.030574869162474923
aF0.2241978917043804
aF0.4737302654007103
aF0.7021479994075184
a.