(lp0
F0.0034518453799021833
aF0.0012260450431909073
aF0.0559861837450719
aF0.0009801756306550477
aF0.0029220311850319614
aF0.003701404622436152
aF0.006774202470636452
aF0.0018827006294145983
aF0.010449564851163067
aF0.0020389016227941774
aF1.613883534357094e-05
aF0.005258024818151713
aF0.002068630295870095
aF0.01851757210940747
aF0.011834426181432425
aF0.012512593850390268
aF0.004880737420872045
aF0.008820461354946955
aF0.0050033790921632975
aF0.04217577580532565
a.