(lp0
F0.013046541765299503
aF0.023087218068176672
aF0.00935294707295286
aF0.008713773141762542
aF0.024407792936432228
aF0.008744578932980846
aF0.015981700145702157
a0
F0.028866394480996812
aF0.012598060785449942
aF0.016889335525193325
a0
F0.021022159976500896
aF0.03015717897358968
aF0.016516792881463762
aF0.012632075055937692
aF0.009909757782254723
aF0.009435097919787893
aF0.020161436178407693
aF0.04456409072069375
aF0.020018360722872386
a0
F0.01579038913597675
a.