(lp0
F0.9134330288757639
aF0.9140863168821576
aF0.9098626488782698
aF0.9113379940587577
aF0.9259813049846565
aF0.9060269955116862
aF0.9135189268737722
a
F0.9191066728228124
aF0.8978092502866624
aF0.9197143000349426
a0
F0.9132096342844889
aF0.9199708148218445
aF0.9258357250353879
aF0.9154987735489772
aF0.907521847515992
aF0.9182911308025244
aF0.9128407005462892
aF0.9125347265223317
aF0.9092396828914227
a0
F0.9157334238467867
a.