(lp0
F0.9154580986775915
aF0.909960128626036
aF0.9699485972331297
aF0.9075037744737615
aF0.9153129414800232
aF0.9102985973749884
aF0.8971035477322344
aF0.9025556113568386
aF0.9083051540868463
a0
F0.9342083546824373
aF0.9184126985724308
aF0.916505031116752
aF0.9143222972764565
aF0.9119789416888766
aF0.9081582735292714
aF0.9034218406168357
aF0.9014822896425686
aF0.9085158276926071
a
F0.9120848593267383
aF0.9101499125456233
a.